   1              	 .syntax unified
   2              	 .cpu cortex-m4
   3              	 .eabi_attribute 27,3
   4              	 .fpu fpv4-sp-d16
   5              	 .eabi_attribute 20,1
   6              	 .eabi_attribute 21,1
   7              	 .eabi_attribute 23,3
   8              	 .eabi_attribute 24,1
   9              	 .eabi_attribute 25,1
  10              	 .eabi_attribute 26,1
  11              	 .eabi_attribute 30,6
  12              	 .eabi_attribute 34,1
  13              	 .eabi_attribute 18,4
  14              	 .thumb
  15              	 .file "uart_config_conf.c"
  16              	 .text
  17              	.Ltext0:
  18              	 .cfi_sections .debug_frame
  19              	 .section .text.XMC_USIC_CH_SetInputSource,"ax",%progbits
  20              	 .align 2
  21              	 .thumb
  22              	 .thumb_func
  24              	XMC_USIC_CH_SetInputSource:
  25              	.LFB130:
  26              	 .file 1 "C:/Users/Will/Documents/GitHub/Launch-DAQ/Libraries/XMCLib/inc/xmc_usic.h"
   1:C:/Users/Will/Documents/GitHub/Launch-DAQ/Libraries/XMCLib/inc\xmc_usic.h **** /**
   2:C:/Users/Will/Documents/GitHub/Launch-DAQ/Libraries/XMCLib/inc\xmc_usic.h ****  * @file xmc_usic.h
   3:C:/Users/Will/Documents/GitHub/Launch-DAQ/Libraries/XMCLib/inc\xmc_usic.h ****  * @date 2016-04-10
   4:C:/Users/Will/Documents/GitHub/Launch-DAQ/Libraries/XMCLib/inc\xmc_usic.h ****  *
   5:C:/Users/Will/Documents/GitHub/Launch-DAQ/Libraries/XMCLib/inc\xmc_usic.h ****  * @cond
   6:C:/Users/Will/Documents/GitHub/Launch-DAQ/Libraries/XMCLib/inc\xmc_usic.h ****   *************************************************************************************************
   7:C:/Users/Will/Documents/GitHub/Launch-DAQ/Libraries/XMCLib/inc\xmc_usic.h ****  * XMClib v2.1.8 - XMC Peripheral Driver Library 
   8:C:/Users/Will/Documents/GitHub/Launch-DAQ/Libraries/XMCLib/inc\xmc_usic.h ****  *
   9:C:/Users/Will/Documents/GitHub/Launch-DAQ/Libraries/XMCLib/inc\xmc_usic.h ****  * Copyright (c) 2015-2016, Infineon Technologies AG
  10:C:/Users/Will/Documents/GitHub/Launch-DAQ/Libraries/XMCLib/inc\xmc_usic.h ****  * All rights reserved.                        
  11:C:/Users/Will/Documents/GitHub/Launch-DAQ/Libraries/XMCLib/inc\xmc_usic.h ****  *                                             
  12:C:/Users/Will/Documents/GitHub/Launch-DAQ/Libraries/XMCLib/inc\xmc_usic.h ****  * Redistribution and use in source and binary forms, with or without modification,are permitted pr
  13:C:/Users/Will/Documents/GitHub/Launch-DAQ/Libraries/XMCLib/inc\xmc_usic.h ****  * following conditions are met:   
  14:C:/Users/Will/Documents/GitHub/Launch-DAQ/Libraries/XMCLib/inc\xmc_usic.h ****  *                                                                              
  15:C:/Users/Will/Documents/GitHub/Launch-DAQ/Libraries/XMCLib/inc\xmc_usic.h ****  * Redistributions of source code must retain the above copyright notice, this list of conditions a
  16:C:/Users/Will/Documents/GitHub/Launch-DAQ/Libraries/XMCLib/inc\xmc_usic.h ****  * disclaimer.                        
  17:C:/Users/Will/Documents/GitHub/Launch-DAQ/Libraries/XMCLib/inc\xmc_usic.h ****  * 
  18:C:/Users/Will/Documents/GitHub/Launch-DAQ/Libraries/XMCLib/inc\xmc_usic.h ****  * Redistributions in binary form must reproduce the above copyright notice, this list of condition
  19:C:/Users/Will/Documents/GitHub/Launch-DAQ/Libraries/XMCLib/inc\xmc_usic.h ****  * disclaimer in the documentation and/or other materials provided with the distribution.          
  20:C:/Users/Will/Documents/GitHub/Launch-DAQ/Libraries/XMCLib/inc\xmc_usic.h ****  * 
  21:C:/Users/Will/Documents/GitHub/Launch-DAQ/Libraries/XMCLib/inc\xmc_usic.h ****  * Neither the name of the copyright holders nor the names of its contributors may be used to endor
  22:C:/Users/Will/Documents/GitHub/Launch-DAQ/Libraries/XMCLib/inc\xmc_usic.h ****  * products derived from this software without specific prior written permission.                  
  23:C:/Users/Will/Documents/GitHub/Launch-DAQ/Libraries/XMCLib/inc\xmc_usic.h ****  *                                                                              
  24:C:/Users/Will/Documents/GitHub/Launch-DAQ/Libraries/XMCLib/inc\xmc_usic.h ****  * THIS SOFTWARE IS PROVIDED BY THE COPYRIGHT HOLDERS AND CONTRIBUTORS "AS IS" AND ANY EXPRESS OR I
  25:C:/Users/Will/Documents/GitHub/Launch-DAQ/Libraries/XMCLib/inc\xmc_usic.h ****  * INCLUDING, BUT NOT LIMITED TO, THE IMPLIED WARRANTIES OF MERCHANTABILITY AND FITNESS FOR A PARTI
  26:C:/Users/Will/Documents/GitHub/Launch-DAQ/Libraries/XMCLib/inc\xmc_usic.h ****  * DISCLAIMED. IN NO EVENT SHALL THE COPYRIGHT HOLDER OR CONTRIBUTORS BE LIABLE  FOR ANY DIRECT, IN
  27:C:/Users/Will/Documents/GitHub/Launch-DAQ/Libraries/XMCLib/inc\xmc_usic.h ****  * SPECIAL, EXEMPLARY, OR CONSEQUENTIAL DAMAGES (INCLUDING, BUT NOT LIMITED TO, PROCUREMENT OF SUBS
  28:C:/Users/Will/Documents/GitHub/Launch-DAQ/Libraries/XMCLib/inc\xmc_usic.h ****  * SERVICES; LOSS OF USE, DATA, OR PROFITS; OR BUSINESS INTERRUPTION) HOWEVER CAUSED AND ON ANY THE
  29:C:/Users/Will/Documents/GitHub/Launch-DAQ/Libraries/XMCLib/inc\xmc_usic.h ****  * WHETHER IN CONTRACT, STRICT LIABILITY,OR TORT (INCLUDING NEGLIGENCE OR OTHERWISE) ARISING IN ANY
  30:C:/Users/Will/Documents/GitHub/Launch-DAQ/Libraries/XMCLib/inc\xmc_usic.h ****  * OF THIS SOFTWARE, EVEN IF ADVISED OF THE POSSIBILITY OF SUCH DAMAGE.                            
  31:C:/Users/Will/Documents/GitHub/Launch-DAQ/Libraries/XMCLib/inc\xmc_usic.h ****  *                                                                              
  32:C:/Users/Will/Documents/GitHub/Launch-DAQ/Libraries/XMCLib/inc\xmc_usic.h ****  * To improve the quality of the software, users are encouraged to share modifications, enhancement
  33:C:/Users/Will/Documents/GitHub/Launch-DAQ/Libraries/XMCLib/inc\xmc_usic.h ****  * Infineon Technologies AG dave@infineon.com).                                                    
  34:C:/Users/Will/Documents/GitHub/Launch-DAQ/Libraries/XMCLib/inc\xmc_usic.h ****  **************************************************************************************************
  35:C:/Users/Will/Documents/GitHub/Launch-DAQ/Libraries/XMCLib/inc\xmc_usic.h ****  *
  36:C:/Users/Will/Documents/GitHub/Launch-DAQ/Libraries/XMCLib/inc\xmc_usic.h ****  * Change History
  37:C:/Users/Will/Documents/GitHub/Launch-DAQ/Libraries/XMCLib/inc\xmc_usic.h ****  * --------------
  38:C:/Users/Will/Documents/GitHub/Launch-DAQ/Libraries/XMCLib/inc\xmc_usic.h ****  *
  39:C:/Users/Will/Documents/GitHub/Launch-DAQ/Libraries/XMCLib/inc\xmc_usic.h ****  * 2015-02-20:
  40:C:/Users/Will/Documents/GitHub/Launch-DAQ/Libraries/XMCLib/inc\xmc_usic.h ****  *     - Initial draft<br>
  41:C:/Users/Will/Documents/GitHub/Launch-DAQ/Libraries/XMCLib/inc\xmc_usic.h ****  *     - Documentation improved <br>
  42:C:/Users/Will/Documents/GitHub/Launch-DAQ/Libraries/XMCLib/inc\xmc_usic.h ****  *
  43:C:/Users/Will/Documents/GitHub/Launch-DAQ/Libraries/XMCLib/inc\xmc_usic.h ****  * 2015-05-08:
  44:C:/Users/Will/Documents/GitHub/Launch-DAQ/Libraries/XMCLib/inc\xmc_usic.h ****  *     - Added XMC_USIC_CH_SetInputTriggerCombinationMode() and XMC_USIC_CH_SetTransmitBufferStatus
  45:C:/Users/Will/Documents/GitHub/Launch-DAQ/Libraries/XMCLib/inc\xmc_usic.h ****  *      
  46:C:/Users/Will/Documents/GitHub/Launch-DAQ/Libraries/XMCLib/inc\xmc_usic.h ****  * 2015-06-20:
  47:C:/Users/Will/Documents/GitHub/Launch-DAQ/Libraries/XMCLib/inc\xmc_usic.h ****  *     - Removed version macros and declaration of GetDriverVersion API
  48:C:/Users/Will/Documents/GitHub/Launch-DAQ/Libraries/XMCLib/inc\xmc_usic.h ****  * 
  49:C:/Users/Will/Documents/GitHub/Launch-DAQ/Libraries/XMCLib/inc\xmc_usic.h ****  * 2015-08-17:
  50:C:/Users/Will/Documents/GitHub/Launch-DAQ/Libraries/XMCLib/inc\xmc_usic.h ****  *     - Bug fixed in XMC_USIC_CH_SetTransmitBufferStatus API. OR operator removed.
  51:C:/Users/Will/Documents/GitHub/Launch-DAQ/Libraries/XMCLib/inc\xmc_usic.h ****  *
  52:C:/Users/Will/Documents/GitHub/Launch-DAQ/Libraries/XMCLib/inc\xmc_usic.h ****  * 2015-08-24:
  53:C:/Users/Will/Documents/GitHub/Launch-DAQ/Libraries/XMCLib/inc\xmc_usic.h ****  *     - Added APIs for enabling/disabling delay compensation XMC_USIC_CH_DisableDelayCompensation(
  54:C:/Users/Will/Documents/GitHub/Launch-DAQ/Libraries/XMCLib/inc\xmc_usic.h ****  *       XMC_USIC_CH_DisableDelayCompensation()
  55:C:/Users/Will/Documents/GitHub/Launch-DAQ/Libraries/XMCLib/inc\xmc_usic.h ****  *
  56:C:/Users/Will/Documents/GitHub/Launch-DAQ/Libraries/XMCLib/inc\xmc_usic.h ****  * 2015-08-25:
  57:C:/Users/Will/Documents/GitHub/Launch-DAQ/Libraries/XMCLib/inc\xmc_usic.h ****  *     - Added APIs for defining if the data shift unit input is derived
  58:C:/Users/Will/Documents/GitHub/Launch-DAQ/Libraries/XMCLib/inc\xmc_usic.h ****  *       from the input data path DXn or from the selected protocol pre-processors: XMC_USIC_CH_Con
  59:C:/Users/Will/Documents/GitHub/Launch-DAQ/Libraries/XMCLib/inc\xmc_usic.h ****  *       and XMC_USIC_CH_ConnectInputDataShiftToDataInput()
  60:C:/Users/Will/Documents/GitHub/Launch-DAQ/Libraries/XMCLib/inc\xmc_usic.h ****  *
  61:C:/Users/Will/Documents/GitHub/Launch-DAQ/Libraries/XMCLib/inc\xmc_usic.h ****  * 2015-08-27:
  62:C:/Users/Will/Documents/GitHub/Launch-DAQ/Libraries/XMCLib/inc\xmc_usic.h ****  *     - Fixed bug in XMC_USIC_CH_BRG_CLOCK_SOURCE_DX1T value.
  63:C:/Users/Will/Documents/GitHub/Launch-DAQ/Libraries/XMCLib/inc\xmc_usic.h ****  *     - Added APIs for direct TBUF access: XMC_USIC_CH_WriteToTBUF() and XMC_USIC_CH_WriteToTBUFTC
  64:C:/Users/Will/Documents/GitHub/Launch-DAQ/Libraries/XMCLib/inc\xmc_usic.h ****  *     - Added APIs for external input for BRG configuration:XMC_USIC_CH_ConfigExternalInputSignalT
  65:C:/Users/Will/Documents/GitHub/Launch-DAQ/Libraries/XMCLib/inc\xmc_usic.h ****  *
  66:C:/Users/Will/Documents/GitHub/Launch-DAQ/Libraries/XMCLib/inc\xmc_usic.h ****  * 2015-08-28:
  67:C:/Users/Will/Documents/GitHub/Launch-DAQ/Libraries/XMCLib/inc\xmc_usic.h ****  *     - Added API for enabling the transfer trigger unit to set bit TCSR.TE if the trigger signal 
  68:C:/Users/Will/Documents/GitHub/Launch-DAQ/Libraries/XMCLib/inc\xmc_usic.h ****  *       Clear to Send (CTS) signal: XMC_USIC_CH_EnableTBUFDataValidTrigger() and XMC_USIC_CH_Disab
  69:C:/Users/Will/Documents/GitHub/Launch-DAQ/Libraries/XMCLib/inc\xmc_usic.h ****  *
  70:C:/Users/Will/Documents/GitHub/Launch-DAQ/Libraries/XMCLib/inc\xmc_usic.h ****  * 2016-03-09:
  71:C:/Users/Will/Documents/GitHub/Launch-DAQ/Libraries/XMCLib/inc\xmc_usic.h ****  *     - Optimization of write only registers
  72:C:/Users/Will/Documents/GitHub/Launch-DAQ/Libraries/XMCLib/inc\xmc_usic.h ****  *
  73:C:/Users/Will/Documents/GitHub/Launch-DAQ/Libraries/XMCLib/inc\xmc_usic.h ****  * 2016-04-10:
  74:C:/Users/Will/Documents/GitHub/Launch-DAQ/Libraries/XMCLib/inc\xmc_usic.h ****  *     - Added an API to put the data into FIFO when hardware port control is enabled: XMC_USIC_CH_
  75:C:/Users/Will/Documents/GitHub/Launch-DAQ/Libraries/XMCLib/inc\xmc_usic.h ****  *
  76:C:/Users/Will/Documents/GitHub/Launch-DAQ/Libraries/XMCLib/inc\xmc_usic.h ****  * @endcond
  77:C:/Users/Will/Documents/GitHub/Launch-DAQ/Libraries/XMCLib/inc\xmc_usic.h ****  *
  78:C:/Users/Will/Documents/GitHub/Launch-DAQ/Libraries/XMCLib/inc\xmc_usic.h ****  */
  79:C:/Users/Will/Documents/GitHub/Launch-DAQ/Libraries/XMCLib/inc\xmc_usic.h **** 
  80:C:/Users/Will/Documents/GitHub/Launch-DAQ/Libraries/XMCLib/inc\xmc_usic.h **** #ifndef XMC_USIC_H
  81:C:/Users/Will/Documents/GitHub/Launch-DAQ/Libraries/XMCLib/inc\xmc_usic.h **** #define XMC_USIC_H
  82:C:/Users/Will/Documents/GitHub/Launch-DAQ/Libraries/XMCLib/inc\xmc_usic.h **** /*******************************************************************************
  83:C:/Users/Will/Documents/GitHub/Launch-DAQ/Libraries/XMCLib/inc\xmc_usic.h ****  * HEADER FILES
  84:C:/Users/Will/Documents/GitHub/Launch-DAQ/Libraries/XMCLib/inc\xmc_usic.h ****  *******************************************************************************/
  85:C:/Users/Will/Documents/GitHub/Launch-DAQ/Libraries/XMCLib/inc\xmc_usic.h **** 
  86:C:/Users/Will/Documents/GitHub/Launch-DAQ/Libraries/XMCLib/inc\xmc_usic.h **** #include "xmc_common.h"
  87:C:/Users/Will/Documents/GitHub/Launch-DAQ/Libraries/XMCLib/inc\xmc_usic.h **** 
  88:C:/Users/Will/Documents/GitHub/Launch-DAQ/Libraries/XMCLib/inc\xmc_usic.h **** /**
  89:C:/Users/Will/Documents/GitHub/Launch-DAQ/Libraries/XMCLib/inc\xmc_usic.h ****  * @addtogroup XMClib XMC Peripheral Library
  90:C:/Users/Will/Documents/GitHub/Launch-DAQ/Libraries/XMCLib/inc\xmc_usic.h ****  * @{
  91:C:/Users/Will/Documents/GitHub/Launch-DAQ/Libraries/XMCLib/inc\xmc_usic.h ****  */
  92:C:/Users/Will/Documents/GitHub/Launch-DAQ/Libraries/XMCLib/inc\xmc_usic.h **** 
  93:C:/Users/Will/Documents/GitHub/Launch-DAQ/Libraries/XMCLib/inc\xmc_usic.h **** /**
  94:C:/Users/Will/Documents/GitHub/Launch-DAQ/Libraries/XMCLib/inc\xmc_usic.h ****  * @addtogroup USIC
  95:C:/Users/Will/Documents/GitHub/Launch-DAQ/Libraries/XMCLib/inc\xmc_usic.h ****  * @brief Universal Serial Interface Channel(USIC) driver for serial communication.
  96:C:/Users/Will/Documents/GitHub/Launch-DAQ/Libraries/XMCLib/inc\xmc_usic.h ****  *
  97:C:/Users/Will/Documents/GitHub/Launch-DAQ/Libraries/XMCLib/inc\xmc_usic.h ****  * The Universal Serial Interface Channel(USIC) module is a flexible interface module
  98:C:/Users/Will/Documents/GitHub/Launch-DAQ/Libraries/XMCLib/inc\xmc_usic.h ****  * covering several serial communication protocols. A USIC module contains two
  99:C:/Users/Will/Documents/GitHub/Launch-DAQ/Libraries/XMCLib/inc\xmc_usic.h ****  * independent communication channels named USICx_CH0 and USICx_CH1, with x
 100:C:/Users/Will/Documents/GitHub/Launch-DAQ/Libraries/XMCLib/inc\xmc_usic.h ****  * being the number of the USIC module. The user can program, during run-time, which protocol will 
 101:C:/Users/Will/Documents/GitHub/Launch-DAQ/Libraries/XMCLib/inc\xmc_usic.h ****  * by each communication channel and which pins are used.
 102:C:/Users/Will/Documents/GitHub/Launch-DAQ/Libraries/XMCLib/inc\xmc_usic.h ****  * The driver provides APIs, configuration structures and enumerations to configure common features
 103:C:/Users/Will/Documents/GitHub/Launch-DAQ/Libraries/XMCLib/inc\xmc_usic.h ****  * communication protocols.
 104:C:/Users/Will/Documents/GitHub/Launch-DAQ/Libraries/XMCLib/inc\xmc_usic.h ****  * 
 105:C:/Users/Will/Documents/GitHub/Launch-DAQ/Libraries/XMCLib/inc\xmc_usic.h ****  * USIC driver features:
 106:C:/Users/Will/Documents/GitHub/Launch-DAQ/Libraries/XMCLib/inc\xmc_usic.h ****  * -# Allows configuration of FIFO for transmit and receive functions.
 107:C:/Users/Will/Documents/GitHub/Launch-DAQ/Libraries/XMCLib/inc\xmc_usic.h ****  * -# Provides a structure type XMC_USIC_CH_t to represent the USIC channel registers in a programm
 108:C:/Users/Will/Documents/GitHub/Launch-DAQ/Libraries/XMCLib/inc\xmc_usic.h ****  friendly format.
 109:C:/Users/Will/Documents/GitHub/Launch-DAQ/Libraries/XMCLib/inc\xmc_usic.h ****  * -# Allows configuration of automatic update for frame length, word length, slave select or slave
 110:C:/Users/Will/Documents/GitHub/Launch-DAQ/Libraries/XMCLib/inc\xmc_usic.h ****  * -# Allows transmission of data to FIFO using XMC_USIC_CH_TXFIFO_PutData() and XMC_USIC_CH_TXFIFO
 111:C:/Users/Will/Documents/GitHub/Launch-DAQ/Libraries/XMCLib/inc\xmc_usic.h ****  * -# Allows reading of received data in FIFO using XMC_USIC_CH_RXFIFO_GetData()
 112:C:/Users/Will/Documents/GitHub/Launch-DAQ/Libraries/XMCLib/inc\xmc_usic.h ****  * -# Allows configuration of baudrate using XMC_USIC_CH_SetBaudrate()
 113:C:/Users/Will/Documents/GitHub/Launch-DAQ/Libraries/XMCLib/inc\xmc_usic.h ****  * -# Provides API to trigger interrupts using XMC_USIC_CH_TriggerServiceRequest()
 114:C:/Users/Will/Documents/GitHub/Launch-DAQ/Libraries/XMCLib/inc\xmc_usic.h ****  * @{
 115:C:/Users/Will/Documents/GitHub/Launch-DAQ/Libraries/XMCLib/inc\xmc_usic.h ****  */
 116:C:/Users/Will/Documents/GitHub/Launch-DAQ/Libraries/XMCLib/inc\xmc_usic.h **** 
 117:C:/Users/Will/Documents/GitHub/Launch-DAQ/Libraries/XMCLib/inc\xmc_usic.h **** /*******************************************************************************
 118:C:/Users/Will/Documents/GitHub/Launch-DAQ/Libraries/XMCLib/inc\xmc_usic.h ****  * MACROS
 119:C:/Users/Will/Documents/GitHub/Launch-DAQ/Libraries/XMCLib/inc\xmc_usic.h ****  *******************************************************************************/
 120:C:/Users/Will/Documents/GitHub/Launch-DAQ/Libraries/XMCLib/inc\xmc_usic.h **** 
 121:C:/Users/Will/Documents/GitHub/Launch-DAQ/Libraries/XMCLib/inc\xmc_usic.h **** #define XMC_USIC0 ((XMC_USIC_t *)USIC0_BASE)			/**< USIC0 module base address */
 122:C:/Users/Will/Documents/GitHub/Launch-DAQ/Libraries/XMCLib/inc\xmc_usic.h **** #define XMC_USIC0_CH0 ((XMC_USIC_CH_t *)USIC0_CH0_BASE)	/**< USIC0 channel 0 base address */
 123:C:/Users/Will/Documents/GitHub/Launch-DAQ/Libraries/XMCLib/inc\xmc_usic.h **** #define XMC_USIC0_CH1 ((XMC_USIC_CH_t *)USIC0_CH1_BASE)	/**< USIC0 channel 1 base address */
 124:C:/Users/Will/Documents/GitHub/Launch-DAQ/Libraries/XMCLib/inc\xmc_usic.h **** 
 125:C:/Users/Will/Documents/GitHub/Launch-DAQ/Libraries/XMCLib/inc\xmc_usic.h **** #if defined(USIC1)
 126:C:/Users/Will/Documents/GitHub/Launch-DAQ/Libraries/XMCLib/inc\xmc_usic.h **** #define XMC_USIC1 ((XMC_USIC_t *)USIC1_BASE)			/**< USIC1 module base address */
 127:C:/Users/Will/Documents/GitHub/Launch-DAQ/Libraries/XMCLib/inc\xmc_usic.h **** #define XMC_USIC1_CH0 ((XMC_USIC_CH_t *)USIC1_CH0_BASE)	/**< USIC1 channel 0 base address */
 128:C:/Users/Will/Documents/GitHub/Launch-DAQ/Libraries/XMCLib/inc\xmc_usic.h **** #define XMC_USIC1_CH1 ((XMC_USIC_CH_t *)USIC1_CH1_BASE)	/**< USIC1 channel 1 base address */
 129:C:/Users/Will/Documents/GitHub/Launch-DAQ/Libraries/XMCLib/inc\xmc_usic.h **** #endif
 130:C:/Users/Will/Documents/GitHub/Launch-DAQ/Libraries/XMCLib/inc\xmc_usic.h **** 
 131:C:/Users/Will/Documents/GitHub/Launch-DAQ/Libraries/XMCLib/inc\xmc_usic.h **** #if defined(USIC2)
 132:C:/Users/Will/Documents/GitHub/Launch-DAQ/Libraries/XMCLib/inc\xmc_usic.h **** #define XMC_USIC2 ((XMC_USIC_t *)USIC2_BASE)			/**< USIC2 module base address */
 133:C:/Users/Will/Documents/GitHub/Launch-DAQ/Libraries/XMCLib/inc\xmc_usic.h **** #define XMC_USIC2_CH0 ((XMC_USIC_CH_t *)USIC2_CH0_BASE)	/**< USIC2 channel 0 base address */
 134:C:/Users/Will/Documents/GitHub/Launch-DAQ/Libraries/XMCLib/inc\xmc_usic.h **** #define XMC_USIC2_CH1 ((XMC_USIC_CH_t *)USIC2_CH1_BASE)	/**< USIC2 channel 1 base address */
 135:C:/Users/Will/Documents/GitHub/Launch-DAQ/Libraries/XMCLib/inc\xmc_usic.h **** #endif
 136:C:/Users/Will/Documents/GitHub/Launch-DAQ/Libraries/XMCLib/inc\xmc_usic.h **** 
 137:C:/Users/Will/Documents/GitHub/Launch-DAQ/Libraries/XMCLib/inc\xmc_usic.h **** #define USIC_CH_DXCR_DSEL_Msk  USIC_CH_DX0CR_DSEL_Msk   /**< Common mask for DSEL bitfield mask in 
 138:C:/Users/Will/Documents/GitHub/Launch-DAQ/Libraries/XMCLib/inc\xmc_usic.h **** #define USIC_CH_DXCR_DSEL_Pos  USIC_CH_DX0CR_DSEL_Pos   /**< Common mask for DSEL bitfield position
 139:C:/Users/Will/Documents/GitHub/Launch-DAQ/Libraries/XMCLib/inc\xmc_usic.h **** #define USIC_CH_DXCR_SFSEL_Pos USIC_CH_DX0CR_SFSEL_Pos  /**< Common mask for SFSEL bitfield positio
 140:C:/Users/Will/Documents/GitHub/Launch-DAQ/Libraries/XMCLib/inc\xmc_usic.h **** #define USIC_CH_DXCR_SFSEL_Msk USIC_CH_DX0CR_SFSEL_Msk  /**< Common mask for SFSEL bitfield mask in
 141:C:/Users/Will/Documents/GitHub/Launch-DAQ/Libraries/XMCLib/inc\xmc_usic.h **** #define USIC_CH_DXCR_DPOL_Msk  USIC_CH_DX0CR_DPOL_Msk   /**< Common mask for DPOL bitfield mask in 
 142:C:/Users/Will/Documents/GitHub/Launch-DAQ/Libraries/XMCLib/inc\xmc_usic.h **** #define USIC_CH_DXCR_DFEN_Msk  USIC_CH_DX0CR_DFEN_Msk   /**< Common mask for DFEN bitfield mask in 
 143:C:/Users/Will/Documents/GitHub/Launch-DAQ/Libraries/XMCLib/inc\xmc_usic.h **** #define USIC_CH_DXCR_DSEN_Msk  USIC_CH_DX0CR_DSEN_Msk   /**< Common mask for DSEN bitfield mask in 
 144:C:/Users/Will/Documents/GitHub/Launch-DAQ/Libraries/XMCLib/inc\xmc_usic.h **** #define USIC_CH_DXCR_CM_Pos    USIC_CH_DX0CR_CM_Pos     /**< Common mask for CM bitfield position i
 145:C:/Users/Will/Documents/GitHub/Launch-DAQ/Libraries/XMCLib/inc\xmc_usic.h **** #define USIC_CH_DXCR_CM_Msk    USIC_CH_DX0CR_CM_Msk     /**< Common mask for CM bitfield mask in DX
 146:C:/Users/Will/Documents/GitHub/Launch-DAQ/Libraries/XMCLib/inc\xmc_usic.h **** #define USIC_CH_DXCR_INSW_Msk  USIC_CH_DX0CR_INSW_Msk   /**< Common mask for INSW bitfield mask in 
 147:C:/Users/Will/Documents/GitHub/Launch-DAQ/Libraries/XMCLib/inc\xmc_usic.h **** #define USIC_CH_DXCR_INSW_pos  USIC_CH_DX0CR_INSW_Pos   /**< Common mask for INSW bitfield position
 148:C:/Users/Will/Documents/GitHub/Launch-DAQ/Libraries/XMCLib/inc\xmc_usic.h **** 
 149:C:/Users/Will/Documents/GitHub/Launch-DAQ/Libraries/XMCLib/inc\xmc_usic.h **** #if UC_FAMILY == XMC1
 150:C:/Users/Will/Documents/GitHub/Launch-DAQ/Libraries/XMCLib/inc\xmc_usic.h ****  #include "xmc1_usic_map.h"
 151:C:/Users/Will/Documents/GitHub/Launch-DAQ/Libraries/XMCLib/inc\xmc_usic.h **** #endif
 152:C:/Users/Will/Documents/GitHub/Launch-DAQ/Libraries/XMCLib/inc\xmc_usic.h **** 
 153:C:/Users/Will/Documents/GitHub/Launch-DAQ/Libraries/XMCLib/inc\xmc_usic.h **** #if UC_FAMILY == XMC4
 154:C:/Users/Will/Documents/GitHub/Launch-DAQ/Libraries/XMCLib/inc\xmc_usic.h ****  #include "xmc4_usic_map.h"
 155:C:/Users/Will/Documents/GitHub/Launch-DAQ/Libraries/XMCLib/inc\xmc_usic.h **** #endif
 156:C:/Users/Will/Documents/GitHub/Launch-DAQ/Libraries/XMCLib/inc\xmc_usic.h **** 
 157:C:/Users/Will/Documents/GitHub/Launch-DAQ/Libraries/XMCLib/inc\xmc_usic.h **** /*******************************************************************************
 158:C:/Users/Will/Documents/GitHub/Launch-DAQ/Libraries/XMCLib/inc\xmc_usic.h ****  * ENUMS
 159:C:/Users/Will/Documents/GitHub/Launch-DAQ/Libraries/XMCLib/inc\xmc_usic.h ****  *******************************************************************************/
 160:C:/Users/Will/Documents/GitHub/Launch-DAQ/Libraries/XMCLib/inc\xmc_usic.h **** 
 161:C:/Users/Will/Documents/GitHub/Launch-DAQ/Libraries/XMCLib/inc\xmc_usic.h **** /**
 162:C:/Users/Will/Documents/GitHub/Launch-DAQ/Libraries/XMCLib/inc\xmc_usic.h ****  * USIC channel driver status
 163:C:/Users/Will/Documents/GitHub/Launch-DAQ/Libraries/XMCLib/inc\xmc_usic.h ****  */
 164:C:/Users/Will/Documents/GitHub/Launch-DAQ/Libraries/XMCLib/inc\xmc_usic.h **** typedef enum XMC_USIC_CH_STATUS
 165:C:/Users/Will/Documents/GitHub/Launch-DAQ/Libraries/XMCLib/inc\xmc_usic.h **** {
 166:C:/Users/Will/Documents/GitHub/Launch-DAQ/Libraries/XMCLib/inc\xmc_usic.h ****   XMC_USIC_CH_STATUS_OK,    /**< USIC driver status : OK */
 167:C:/Users/Will/Documents/GitHub/Launch-DAQ/Libraries/XMCLib/inc\xmc_usic.h ****   XMC_USIC_CH_STATUS_ERROR, /**< USIC driver status : ERROR */
 168:C:/Users/Will/Documents/GitHub/Launch-DAQ/Libraries/XMCLib/inc\xmc_usic.h ****   XMC_USIC_CH_STATUS_BUSY   /**< USIC driver status : BUSY */
 169:C:/Users/Will/Documents/GitHub/Launch-DAQ/Libraries/XMCLib/inc\xmc_usic.h **** } XMC_USIC_CH_STATUS_t;
 170:C:/Users/Will/Documents/GitHub/Launch-DAQ/Libraries/XMCLib/inc\xmc_usic.h **** 
 171:C:/Users/Will/Documents/GitHub/Launch-DAQ/Libraries/XMCLib/inc\xmc_usic.h **** /**
 172:C:/Users/Will/Documents/GitHub/Launch-DAQ/Libraries/XMCLib/inc\xmc_usic.h **** * USIC channel kernel mode
 173:C:/Users/Will/Documents/GitHub/Launch-DAQ/Libraries/XMCLib/inc\xmc_usic.h **** */
 174:C:/Users/Will/Documents/GitHub/Launch-DAQ/Libraries/XMCLib/inc\xmc_usic.h **** typedef enum XMC_USIC_CH_KERNEL_MODE
 175:C:/Users/Will/Documents/GitHub/Launch-DAQ/Libraries/XMCLib/inc\xmc_usic.h **** {
 176:C:/Users/Will/Documents/GitHub/Launch-DAQ/Libraries/XMCLib/inc\xmc_usic.h ****   XMC_USIC_CH_KERNEL_MODE_RUN_0  = 0x0UL,  /**< Run mode 0 (transmission and reception possible)*/
 177:C:/Users/Will/Documents/GitHub/Launch-DAQ/Libraries/XMCLib/inc\xmc_usic.h ****   XMC_USIC_CH_KERNEL_MODE_RUN_1  = 0x1UL << USIC_CH_KSCFG_NOMCFG_Pos,  /**< Run mode 1 (transmissio
 178:C:/Users/Will/Documents/GitHub/Launch-DAQ/Libraries/XMCLib/inc\xmc_usic.h ****   XMC_USIC_CH_KERNEL_MODE_STOP_0 = 0x2UL << USIC_CH_KSCFG_NOMCFG_Pos,  /**< Stop mode 0 (no transmi
 179:C:/Users/Will/Documents/GitHub/Launch-DAQ/Libraries/XMCLib/inc\xmc_usic.h ****   XMC_USIC_CH_KERNEL_MODE_STOP_1 = 0x3UL << USIC_CH_KSCFG_NOMCFG_Pos   /**< Stop mode 1 (both trans
 180:C:/Users/Will/Documents/GitHub/Launch-DAQ/Libraries/XMCLib/inc\xmc_usic.h **** } XMC_USIC_CH_KERNEL_MODE_t;
 181:C:/Users/Will/Documents/GitHub/Launch-DAQ/Libraries/XMCLib/inc\xmc_usic.h **** 
 182:C:/Users/Will/Documents/GitHub/Launch-DAQ/Libraries/XMCLib/inc\xmc_usic.h **** /**
 183:C:/Users/Will/Documents/GitHub/Launch-DAQ/Libraries/XMCLib/inc\xmc_usic.h ****  * USIC channel operating mode
 184:C:/Users/Will/Documents/GitHub/Launch-DAQ/Libraries/XMCLib/inc\xmc_usic.h ****  */
 185:C:/Users/Will/Documents/GitHub/Launch-DAQ/Libraries/XMCLib/inc\xmc_usic.h **** typedef enum XMC_USIC_CH_OPERATING_MODE
 186:C:/Users/Will/Documents/GitHub/Launch-DAQ/Libraries/XMCLib/inc\xmc_usic.h **** {
 187:C:/Users/Will/Documents/GitHub/Launch-DAQ/Libraries/XMCLib/inc\xmc_usic.h ****   XMC_USIC_CH_OPERATING_MODE_IDLE = 0x0UL, /**< USIC channel idle */
 188:C:/Users/Will/Documents/GitHub/Launch-DAQ/Libraries/XMCLib/inc\xmc_usic.h ****   XMC_USIC_CH_OPERATING_MODE_SPI  = 0x1UL << USIC_CH_CCR_MODE_Pos, /**< SPI mode */
 189:C:/Users/Will/Documents/GitHub/Launch-DAQ/Libraries/XMCLib/inc\xmc_usic.h ****   XMC_USIC_CH_OPERATING_MODE_UART = 0x2UL << USIC_CH_CCR_MODE_Pos, /**< UART mode */
 190:C:/Users/Will/Documents/GitHub/Launch-DAQ/Libraries/XMCLib/inc\xmc_usic.h ****   XMC_USIC_CH_OPERATING_MODE_I2S  = 0x3UL << USIC_CH_CCR_MODE_Pos, /**< I2S mode */
 191:C:/Users/Will/Documents/GitHub/Launch-DAQ/Libraries/XMCLib/inc\xmc_usic.h ****   XMC_USIC_CH_OPERATING_MODE_I2C  = 0x4UL << USIC_CH_CCR_MODE_Pos  /**< I2C mode */
 192:C:/Users/Will/Documents/GitHub/Launch-DAQ/Libraries/XMCLib/inc\xmc_usic.h **** } XMC_USIC_CH_OPERATING_MODE_t;
 193:C:/Users/Will/Documents/GitHub/Launch-DAQ/Libraries/XMCLib/inc\xmc_usic.h **** 
 194:C:/Users/Will/Documents/GitHub/Launch-DAQ/Libraries/XMCLib/inc\xmc_usic.h **** /**
 195:C:/Users/Will/Documents/GitHub/Launch-DAQ/Libraries/XMCLib/inc\xmc_usic.h ****  * USIC channel inputs
 196:C:/Users/Will/Documents/GitHub/Launch-DAQ/Libraries/XMCLib/inc\xmc_usic.h ****  */
 197:C:/Users/Will/Documents/GitHub/Launch-DAQ/Libraries/XMCLib/inc\xmc_usic.h **** typedef enum XMC_USIC_CH_INPUT
 198:C:/Users/Will/Documents/GitHub/Launch-DAQ/Libraries/XMCLib/inc\xmc_usic.h **** {
 199:C:/Users/Will/Documents/GitHub/Launch-DAQ/Libraries/XMCLib/inc\xmc_usic.h ****   XMC_USIC_CH_INPUT_DX0, /**< DX0 input */
 200:C:/Users/Will/Documents/GitHub/Launch-DAQ/Libraries/XMCLib/inc\xmc_usic.h ****   XMC_USIC_CH_INPUT_DX1, /**< DX1 input */
 201:C:/Users/Will/Documents/GitHub/Launch-DAQ/Libraries/XMCLib/inc\xmc_usic.h ****   XMC_USIC_CH_INPUT_DX2, /**< DX2 input */
 202:C:/Users/Will/Documents/GitHub/Launch-DAQ/Libraries/XMCLib/inc\xmc_usic.h ****   XMC_USIC_CH_INPUT_DX3, /**< DX3 input */
 203:C:/Users/Will/Documents/GitHub/Launch-DAQ/Libraries/XMCLib/inc\xmc_usic.h ****   XMC_USIC_CH_INPUT_DX4, /**< DX4 input */
 204:C:/Users/Will/Documents/GitHub/Launch-DAQ/Libraries/XMCLib/inc\xmc_usic.h ****   XMC_USIC_CH_INPUT_DX5  /**< DX5 input */
 205:C:/Users/Will/Documents/GitHub/Launch-DAQ/Libraries/XMCLib/inc\xmc_usic.h **** } XMC_USIC_CH_INPUT_t;
 206:C:/Users/Will/Documents/GitHub/Launch-DAQ/Libraries/XMCLib/inc\xmc_usic.h **** 
 207:C:/Users/Will/Documents/GitHub/Launch-DAQ/Libraries/XMCLib/inc\xmc_usic.h **** /**
 208:C:/Users/Will/Documents/GitHub/Launch-DAQ/Libraries/XMCLib/inc\xmc_usic.h ****  * USIC channel input source sampling frequency
 209:C:/Users/Will/Documents/GitHub/Launch-DAQ/Libraries/XMCLib/inc\xmc_usic.h ****  */
 210:C:/Users/Will/Documents/GitHub/Launch-DAQ/Libraries/XMCLib/inc\xmc_usic.h **** typedef enum XMC_USIC_CH_INPUT_SAMPLING_FREQ
 211:C:/Users/Will/Documents/GitHub/Launch-DAQ/Libraries/XMCLib/inc\xmc_usic.h **** {
 212:C:/Users/Will/Documents/GitHub/Launch-DAQ/Libraries/XMCLib/inc\xmc_usic.h ****   XMC_USIC_CH_INPUT_SAMPLING_FREQ_FPERIPH            = 0x0UL, /**< Use fperiph frequency for input 
 213:C:/Users/Will/Documents/GitHub/Launch-DAQ/Libraries/XMCLib/inc\xmc_usic.h ****   XMC_USIC_CH_INPUT_SAMPLING_FREQ_FRACTIONAL_DIVIDER = 0x1UL << USIC_CH_DXCR_SFSEL_Pos  /**< Use fF
 214:C:/Users/Will/Documents/GitHub/Launch-DAQ/Libraries/XMCLib/inc\xmc_usic.h **** } XMC_USIC_CH_INPUT_SAMPLING_FREQ_t;
 215:C:/Users/Will/Documents/GitHub/Launch-DAQ/Libraries/XMCLib/inc\xmc_usic.h **** 
 216:C:/Users/Will/Documents/GitHub/Launch-DAQ/Libraries/XMCLib/inc\xmc_usic.h **** /**
 217:C:/Users/Will/Documents/GitHub/Launch-DAQ/Libraries/XMCLib/inc\xmc_usic.h ****  * USIC channel input combination mode
 218:C:/Users/Will/Documents/GitHub/Launch-DAQ/Libraries/XMCLib/inc\xmc_usic.h ****  */
 219:C:/Users/Will/Documents/GitHub/Launch-DAQ/Libraries/XMCLib/inc\xmc_usic.h **** typedef enum XMC_USIC_CH_INPUT_COMBINATION_MODE
 220:C:/Users/Will/Documents/GitHub/Launch-DAQ/Libraries/XMCLib/inc\xmc_usic.h **** {
 221:C:/Users/Will/Documents/GitHub/Launch-DAQ/Libraries/XMCLib/inc\xmc_usic.h ****   XMC_USIC_CH_INPUT_COMBINATION_MODE_TRIGGER_DISABLED = 0x0UL, /**< The trigger activation is disab
 222:C:/Users/Will/Documents/GitHub/Launch-DAQ/Libraries/XMCLib/inc\xmc_usic.h ****   XMC_USIC_CH_INPUT_COMBINATION_MODE_RISING_EDGE      = 0x1UL, /**< A rising edge activates DXnT*/
 223:C:/Users/Will/Documents/GitHub/Launch-DAQ/Libraries/XMCLib/inc\xmc_usic.h ****   XMC_USIC_CH_INPUT_COMBINATION_MODE_FALLING_EDGE     = 0x2UL, /**< A falling edge activates DXnT*/
 224:C:/Users/Will/Documents/GitHub/Launch-DAQ/Libraries/XMCLib/inc\xmc_usic.h ****   XMC_USIC_CH_INPUT_COMBINATION_MODE_BOTH_EDGES       = 0x3UL, /**< Both edges activate DXnT*/
 225:C:/Users/Will/Documents/GitHub/Launch-DAQ/Libraries/XMCLib/inc\xmc_usic.h **** } XMC_USIC_CH_INPUT_COMBINATION_MODE_t;
 226:C:/Users/Will/Documents/GitHub/Launch-DAQ/Libraries/XMCLib/inc\xmc_usic.h **** 
 227:C:/Users/Will/Documents/GitHub/Launch-DAQ/Libraries/XMCLib/inc\xmc_usic.h **** /**
 228:C:/Users/Will/Documents/GitHub/Launch-DAQ/Libraries/XMCLib/inc\xmc_usic.h ****  * USIC channel data transmission start modes.
 229:C:/Users/Will/Documents/GitHub/Launch-DAQ/Libraries/XMCLib/inc\xmc_usic.h ****  * Data shifted out of the transmit pin depends on the value configured for the
 230:C:/Users/Will/Documents/GitHub/Launch-DAQ/Libraries/XMCLib/inc\xmc_usic.h ****  * TDEN bitfield of the TCSR register. Following enum values are used for configuring
 231:C:/Users/Will/Documents/GitHub/Launch-DAQ/Libraries/XMCLib/inc\xmc_usic.h ****  * the TCSR->TDEN bitfield.
 232:C:/Users/Will/Documents/GitHub/Launch-DAQ/Libraries/XMCLib/inc\xmc_usic.h ****  */
 233:C:/Users/Will/Documents/GitHub/Launch-DAQ/Libraries/XMCLib/inc\xmc_usic.h **** typedef enum XMC_USIC_CH_START_TRANSMISION_MODE
 234:C:/Users/Will/Documents/GitHub/Launch-DAQ/Libraries/XMCLib/inc\xmc_usic.h **** {
 235:C:/Users/Will/Documents/GitHub/Launch-DAQ/Libraries/XMCLib/inc\xmc_usic.h ****   XMC_USIC_CH_START_TRANSMISION_DISABLED      = 0x0U, /**< Passive data level is sent out on transm
 236:C:/Users/Will/Documents/GitHub/Launch-DAQ/Libraries/XMCLib/inc\xmc_usic.h ****   XMC_USIC_CH_START_TRANSMISION_ON_TDV        = 0x1UL << USIC_CH_TCSR_TDEN_Pos, /**< Transmission o
 237:C:/Users/Will/Documents/GitHub/Launch-DAQ/Libraries/XMCLib/inc\xmc_usic.h ****   XMC_USIC_CH_START_TRANSMISION_ON_TDV_DX2S_0 = 0x2UL << USIC_CH_TCSR_TDEN_Pos, /**< Transmission o
 238:C:/Users/Will/Documents/GitHub/Launch-DAQ/Libraries/XMCLib/inc\xmc_usic.h ****   XMC_USIC_CH_START_TRANSMISION_ON_TDV_DX2S_1 = 0x3UL << USIC_CH_TCSR_TDEN_Pos  /**< Transmission o
 239:C:/Users/Will/Documents/GitHub/Launch-DAQ/Libraries/XMCLib/inc\xmc_usic.h **** } XMC_USIC_CH_START_TRANSMISION_MODE_t;
 240:C:/Users/Will/Documents/GitHub/Launch-DAQ/Libraries/XMCLib/inc\xmc_usic.h **** 
 241:C:/Users/Will/Documents/GitHub/Launch-DAQ/Libraries/XMCLib/inc\xmc_usic.h **** /**
 242:C:/Users/Will/Documents/GitHub/Launch-DAQ/Libraries/XMCLib/inc\xmc_usic.h ****  * USIC channel interrupt node pointers
 243:C:/Users/Will/Documents/GitHub/Launch-DAQ/Libraries/XMCLib/inc\xmc_usic.h ****  */
 244:C:/Users/Will/Documents/GitHub/Launch-DAQ/Libraries/XMCLib/inc\xmc_usic.h **** typedef enum XMC_USIC_CH_INTERRUPT_NODE_POINTER
 245:C:/Users/Will/Documents/GitHub/Launch-DAQ/Libraries/XMCLib/inc\xmc_usic.h **** {
 246:C:/Users/Will/Documents/GitHub/Launch-DAQ/Libraries/XMCLib/inc\xmc_usic.h ****   XMC_USIC_CH_INTERRUPT_NODE_POINTER_TRANSMIT_SHIFT      = USIC_CH_INPR_TSINP_Pos, /**< Node pointe
 247:C:/Users/Will/Documents/GitHub/Launch-DAQ/Libraries/XMCLib/inc\xmc_usic.h ****   XMC_USIC_CH_INTERRUPT_NODE_POINTER_TRANSMIT_BUFFER     = USIC_CH_INPR_TBINP_Pos, /**< Node pointe
 248:C:/Users/Will/Documents/GitHub/Launch-DAQ/Libraries/XMCLib/inc\xmc_usic.h ****   XMC_USIC_CH_INTERRUPT_NODE_POINTER_RECEIVE             = USIC_CH_INPR_RINP_Pos,  /**< Node pointe
 249:C:/Users/Will/Documents/GitHub/Launch-DAQ/Libraries/XMCLib/inc\xmc_usic.h ****   XMC_USIC_CH_INTERRUPT_NODE_POINTER_ALTERNATE_RECEIVE   = USIC_CH_INPR_AINP_Pos,  /**< Node pointe
 250:C:/Users/Will/Documents/GitHub/Launch-DAQ/Libraries/XMCLib/inc\xmc_usic.h ****   XMC_USIC_CH_INTERRUPT_NODE_POINTER_PROTOCOL            = USIC_CH_INPR_PINP_Pos   /**< Node pointe
 251:C:/Users/Will/Documents/GitHub/Launch-DAQ/Libraries/XMCLib/inc\xmc_usic.h **** } XMC_USIC_CH_INTERRUPT_NODE_POINTER_t;
 252:C:/Users/Will/Documents/GitHub/Launch-DAQ/Libraries/XMCLib/inc\xmc_usic.h **** 
 253:C:/Users/Will/Documents/GitHub/Launch-DAQ/Libraries/XMCLib/inc\xmc_usic.h **** /**
 254:C:/Users/Will/Documents/GitHub/Launch-DAQ/Libraries/XMCLib/inc\xmc_usic.h ****  * USIC channel events
 255:C:/Users/Will/Documents/GitHub/Launch-DAQ/Libraries/XMCLib/inc\xmc_usic.h ****  */
 256:C:/Users/Will/Documents/GitHub/Launch-DAQ/Libraries/XMCLib/inc\xmc_usic.h **** typedef enum XMC_USIC_CH_EVENT
 257:C:/Users/Will/Documents/GitHub/Launch-DAQ/Libraries/XMCLib/inc\xmc_usic.h **** {
 258:C:/Users/Will/Documents/GitHub/Launch-DAQ/Libraries/XMCLib/inc\xmc_usic.h ****   XMC_USIC_CH_EVENT_RECEIVE_START       = USIC_CH_CCR_RSIEN_Msk, /**< Receive start event */
 259:C:/Users/Will/Documents/GitHub/Launch-DAQ/Libraries/XMCLib/inc\xmc_usic.h ****   XMC_USIC_CH_EVENT_DATA_LOST           = USIC_CH_CCR_DLIEN_Msk, /**< Data lost event */
 260:C:/Users/Will/Documents/GitHub/Launch-DAQ/Libraries/XMCLib/inc\xmc_usic.h ****   XMC_USIC_CH_EVENT_TRANSMIT_SHIFT      = USIC_CH_CCR_TSIEN_Msk, /**< Transmit shift event */
 261:C:/Users/Will/Documents/GitHub/Launch-DAQ/Libraries/XMCLib/inc\xmc_usic.h ****   XMC_USIC_CH_EVENT_TRANSMIT_BUFFER     = USIC_CH_CCR_TBIEN_Msk, /**< Transmit buffer event */
 262:C:/Users/Will/Documents/GitHub/Launch-DAQ/Libraries/XMCLib/inc\xmc_usic.h ****   XMC_USIC_CH_EVENT_STANDARD_RECEIVE    = USIC_CH_CCR_RIEN_Msk,  /**< Receive event */
 263:C:/Users/Will/Documents/GitHub/Launch-DAQ/Libraries/XMCLib/inc\xmc_usic.h ****   XMC_USIC_CH_EVENT_ALTERNATIVE_RECEIVE = USIC_CH_CCR_AIEN_Msk,  /**< Alternate receive event */
 264:C:/Users/Will/Documents/GitHub/Launch-DAQ/Libraries/XMCLib/inc\xmc_usic.h ****   XMC_USIC_CH_EVENT_BAUD_RATE_GENERATOR = USIC_CH_CCR_BRGIEN_Msk /**< Baudrate generator event */
 265:C:/Users/Will/Documents/GitHub/Launch-DAQ/Libraries/XMCLib/inc\xmc_usic.h **** } XMC_USIC_CH_EVENT_t;
 266:C:/Users/Will/Documents/GitHub/Launch-DAQ/Libraries/XMCLib/inc\xmc_usic.h **** 
 267:C:/Users/Will/Documents/GitHub/Launch-DAQ/Libraries/XMCLib/inc\xmc_usic.h **** /**
 268:C:/Users/Will/Documents/GitHub/Launch-DAQ/Libraries/XMCLib/inc\xmc_usic.h **** * USIC channel parity mode
 269:C:/Users/Will/Documents/GitHub/Launch-DAQ/Libraries/XMCLib/inc\xmc_usic.h **** */
 270:C:/Users/Will/Documents/GitHub/Launch-DAQ/Libraries/XMCLib/inc\xmc_usic.h **** typedef enum XMC_USIC_CH_PARITY_MODE
 271:C:/Users/Will/Documents/GitHub/Launch-DAQ/Libraries/XMCLib/inc\xmc_usic.h **** {
 272:C:/Users/Will/Documents/GitHub/Launch-DAQ/Libraries/XMCLib/inc\xmc_usic.h ****   XMC_USIC_CH_PARITY_MODE_NONE     = 0x0UL,  /**< Disable parity mode */
 273:C:/Users/Will/Documents/GitHub/Launch-DAQ/Libraries/XMCLib/inc\xmc_usic.h ****   XMC_USIC_CH_PARITY_MODE_EVEN     = 0x2UL << USIC_CH_CCR_PM_Pos,  /**< Enable even parity mode */
 274:C:/Users/Will/Documents/GitHub/Launch-DAQ/Libraries/XMCLib/inc\xmc_usic.h ****   XMC_USIC_CH_PARITY_MODE_ODD      = 0x3UL << USIC_CH_CCR_PM_Pos   /**< Enable odd parity mode */
 275:C:/Users/Will/Documents/GitHub/Launch-DAQ/Libraries/XMCLib/inc\xmc_usic.h **** } XMC_USIC_CH_PARITY_MODE_t;
 276:C:/Users/Will/Documents/GitHub/Launch-DAQ/Libraries/XMCLib/inc\xmc_usic.h **** 
 277:C:/Users/Will/Documents/GitHub/Launch-DAQ/Libraries/XMCLib/inc\xmc_usic.h **** /**
 278:C:/Users/Will/Documents/GitHub/Launch-DAQ/Libraries/XMCLib/inc\xmc_usic.h **** * USIC channel data output mode
 279:C:/Users/Will/Documents/GitHub/Launch-DAQ/Libraries/XMCLib/inc\xmc_usic.h **** */
 280:C:/Users/Will/Documents/GitHub/Launch-DAQ/Libraries/XMCLib/inc\xmc_usic.h **** typedef enum XMC_USIC_CH_DATA_OUTPUT_MODE
 281:C:/Users/Will/Documents/GitHub/Launch-DAQ/Libraries/XMCLib/inc\xmc_usic.h **** {
 282:C:/Users/Will/Documents/GitHub/Launch-DAQ/Libraries/XMCLib/inc\xmc_usic.h ****   XMC_USIC_CH_DATA_OUTPUT_MODE_NORMAL   = 0x0UL,  /**< Data output normal mode */
 283:C:/Users/Will/Documents/GitHub/Launch-DAQ/Libraries/XMCLib/inc\xmc_usic.h ****   XMC_USIC_CH_DATA_OUTPUT_MODE_INVERTED = 0x1UL << USIC_CH_SCTR_DOCFG_Pos   /**< Data output invert
 284:C:/Users/Will/Documents/GitHub/Launch-DAQ/Libraries/XMCLib/inc\xmc_usic.h **** } XMC_USIC_CH_DATA_OUTPUT_MODE_t;
 285:C:/Users/Will/Documents/GitHub/Launch-DAQ/Libraries/XMCLib/inc\xmc_usic.h **** 
 286:C:/Users/Will/Documents/GitHub/Launch-DAQ/Libraries/XMCLib/inc\xmc_usic.h **** /**
 287:C:/Users/Will/Documents/GitHub/Launch-DAQ/Libraries/XMCLib/inc\xmc_usic.h **** * USIC channel data transmit buffer status
 288:C:/Users/Will/Documents/GitHub/Launch-DAQ/Libraries/XMCLib/inc\xmc_usic.h **** */
 289:C:/Users/Will/Documents/GitHub/Launch-DAQ/Libraries/XMCLib/inc\xmc_usic.h **** typedef enum XMC_USIC_CH_TBUF_STATUS
 290:C:/Users/Will/Documents/GitHub/Launch-DAQ/Libraries/XMCLib/inc\xmc_usic.h **** {
 291:C:/Users/Will/Documents/GitHub/Launch-DAQ/Libraries/XMCLib/inc\xmc_usic.h ****   XMC_USIC_CH_TBUF_STATUS_IDLE = 0x0UL,                 /**< Transfer buffer is currently idle*/
 292:C:/Users/Will/Documents/GitHub/Launch-DAQ/Libraries/XMCLib/inc\xmc_usic.h ****   XMC_USIC_CH_TBUF_STATUS_BUSY = USIC_CH_TCSR_TDV_Msk   /**< Transfer buffer is currently busy*/
 293:C:/Users/Will/Documents/GitHub/Launch-DAQ/Libraries/XMCLib/inc\xmc_usic.h **** } XMC_USIC_CH_TBUF_STATUS_t;
 294:C:/Users/Will/Documents/GitHub/Launch-DAQ/Libraries/XMCLib/inc\xmc_usic.h **** 
 295:C:/Users/Will/Documents/GitHub/Launch-DAQ/Libraries/XMCLib/inc\xmc_usic.h **** 
 296:C:/Users/Will/Documents/GitHub/Launch-DAQ/Libraries/XMCLib/inc\xmc_usic.h **** 
 297:C:/Users/Will/Documents/GitHub/Launch-DAQ/Libraries/XMCLib/inc\xmc_usic.h **** /**
 298:C:/Users/Will/Documents/GitHub/Launch-DAQ/Libraries/XMCLib/inc\xmc_usic.h **** * USIC channel data transmit buffer status modification
 299:C:/Users/Will/Documents/GitHub/Launch-DAQ/Libraries/XMCLib/inc\xmc_usic.h **** */
 300:C:/Users/Will/Documents/GitHub/Launch-DAQ/Libraries/XMCLib/inc\xmc_usic.h **** typedef enum XMC_USIC_CH_TBUF_STATUS_SET
 301:C:/Users/Will/Documents/GitHub/Launch-DAQ/Libraries/XMCLib/inc\xmc_usic.h **** {
 302:C:/Users/Will/Documents/GitHub/Launch-DAQ/Libraries/XMCLib/inc\xmc_usic.h ****   XMC_USIC_CH_TBUF_STATUS_SET_BUSY   = 0x1UL, /**< Set Transfer buffer status to busy*/
 303:C:/Users/Will/Documents/GitHub/Launch-DAQ/Libraries/XMCLib/inc\xmc_usic.h ****   XMC_USIC_CH_TBUF_STATUS_SET_IDLE   = 0x2UL  /**< Set Transfer buffer status to idle*/
 304:C:/Users/Will/Documents/GitHub/Launch-DAQ/Libraries/XMCLib/inc\xmc_usic.h **** } XMC_USIC_CH_TBUF_STATUS_SET_t;
 305:C:/Users/Will/Documents/GitHub/Launch-DAQ/Libraries/XMCLib/inc\xmc_usic.h **** 
 306:C:/Users/Will/Documents/GitHub/Launch-DAQ/Libraries/XMCLib/inc\xmc_usic.h **** /**
 307:C:/Users/Will/Documents/GitHub/Launch-DAQ/Libraries/XMCLib/inc\xmc_usic.h **** * USIC channel receive buffer status
 308:C:/Users/Will/Documents/GitHub/Launch-DAQ/Libraries/XMCLib/inc\xmc_usic.h **** */
 309:C:/Users/Will/Documents/GitHub/Launch-DAQ/Libraries/XMCLib/inc\xmc_usic.h **** typedef enum XMC_USIC_CH_RBUF_STATUS
 310:C:/Users/Will/Documents/GitHub/Launch-DAQ/Libraries/XMCLib/inc\xmc_usic.h **** {
 311:C:/Users/Will/Documents/GitHub/Launch-DAQ/Libraries/XMCLib/inc\xmc_usic.h ****   XMC_USIC_CH_RBUF_STATUS_DATA_VALID0 = USIC_CH_RBUFSR_RDV0_Msk, /**< RBUF0 data has not yet been r
 312:C:/Users/Will/Documents/GitHub/Launch-DAQ/Libraries/XMCLib/inc\xmc_usic.h ****   XMC_USIC_CH_RBUF_STATUS_DATA_VALID1 = USIC_CH_RBUFSR_RDV1_Msk  /**< RBUF1 data has not yet been r
 313:C:/Users/Will/Documents/GitHub/Launch-DAQ/Libraries/XMCLib/inc\xmc_usic.h **** } XMC_USIC_CH_RBUF_STATUS_t;
 314:C:/Users/Will/Documents/GitHub/Launch-DAQ/Libraries/XMCLib/inc\xmc_usic.h **** 
 315:C:/Users/Will/Documents/GitHub/Launch-DAQ/Libraries/XMCLib/inc\xmc_usic.h **** /**
 316:C:/Users/Will/Documents/GitHub/Launch-DAQ/Libraries/XMCLib/inc\xmc_usic.h ****  * USIC channel output signal passive data level
 317:C:/Users/Will/Documents/GitHub/Launch-DAQ/Libraries/XMCLib/inc\xmc_usic.h **** */
 318:C:/Users/Will/Documents/GitHub/Launch-DAQ/Libraries/XMCLib/inc\xmc_usic.h **** typedef enum XMC_USCI_CH_PASSIVE_DATA_LEVEL
 319:C:/Users/Will/Documents/GitHub/Launch-DAQ/Libraries/XMCLib/inc\xmc_usic.h **** {
 320:C:/Users/Will/Documents/GitHub/Launch-DAQ/Libraries/XMCLib/inc\xmc_usic.h ****   XMC_USIC_CH_PASSIVE_DATA_LEVEL0 = 0x0UL, /**< Passive level(idle mode signal level) 0 */
 321:C:/Users/Will/Documents/GitHub/Launch-DAQ/Libraries/XMCLib/inc\xmc_usic.h ****   XMC_USIC_CH_PASSIVE_DATA_LEVEL1 = 0x1UL << USIC_CH_SCTR_PDL_Pos  /**< Passive level(idle mode sig
 322:C:/Users/Will/Documents/GitHub/Launch-DAQ/Libraries/XMCLib/inc\xmc_usic.h **** } XMC_USIC_CH_PASSIVE_DATA_LEVEL_t;
 323:C:/Users/Will/Documents/GitHub/Launch-DAQ/Libraries/XMCLib/inc\xmc_usic.h **** 
 324:C:/Users/Will/Documents/GitHub/Launch-DAQ/Libraries/XMCLib/inc\xmc_usic.h **** /**
 325:C:/Users/Will/Documents/GitHub/Launch-DAQ/Libraries/XMCLib/inc\xmc_usic.h **** * USIC channel receive FIFO size
 326:C:/Users/Will/Documents/GitHub/Launch-DAQ/Libraries/XMCLib/inc\xmc_usic.h **** */
 327:C:/Users/Will/Documents/GitHub/Launch-DAQ/Libraries/XMCLib/inc\xmc_usic.h **** typedef enum XMC_USIC_CH_FIFO_SIZE
 328:C:/Users/Will/Documents/GitHub/Launch-DAQ/Libraries/XMCLib/inc\xmc_usic.h **** {
 329:C:/Users/Will/Documents/GitHub/Launch-DAQ/Libraries/XMCLib/inc\xmc_usic.h ****   XMC_USIC_CH_FIFO_DISABLED     = 0x0U,  /**< FIFO Disabled */
 330:C:/Users/Will/Documents/GitHub/Launch-DAQ/Libraries/XMCLib/inc\xmc_usic.h ****   XMC_USIC_CH_FIFO_SIZE_2WORDS  = 0x1U,  /**< FIFO size: 2 words */
 331:C:/Users/Will/Documents/GitHub/Launch-DAQ/Libraries/XMCLib/inc\xmc_usic.h ****   XMC_USIC_CH_FIFO_SIZE_4WORDS  = 0x2U,  /**< FIFO size: 4 words */
 332:C:/Users/Will/Documents/GitHub/Launch-DAQ/Libraries/XMCLib/inc\xmc_usic.h ****   XMC_USIC_CH_FIFO_SIZE_8WORDS  = 0x3U,  /**< FIFO size: 8 words */
 333:C:/Users/Will/Documents/GitHub/Launch-DAQ/Libraries/XMCLib/inc\xmc_usic.h ****   XMC_USIC_CH_FIFO_SIZE_16WORDS = 0x4U,  /**< FIFO size: 16 words */
 334:C:/Users/Will/Documents/GitHub/Launch-DAQ/Libraries/XMCLib/inc\xmc_usic.h ****   XMC_USIC_CH_FIFO_SIZE_32WORDS = 0x5U,  /**< FIFO size: 32 words */
 335:C:/Users/Will/Documents/GitHub/Launch-DAQ/Libraries/XMCLib/inc\xmc_usic.h ****   XMC_USIC_CH_FIFO_SIZE_64WORDS = 0x6U   /**< FIFO size: 64 words */
 336:C:/Users/Will/Documents/GitHub/Launch-DAQ/Libraries/XMCLib/inc\xmc_usic.h **** } XMC_USIC_CH_FIFO_SIZE_t;
 337:C:/Users/Will/Documents/GitHub/Launch-DAQ/Libraries/XMCLib/inc\xmc_usic.h **** 
 338:C:/Users/Will/Documents/GitHub/Launch-DAQ/Libraries/XMCLib/inc\xmc_usic.h **** /**
 339:C:/Users/Will/Documents/GitHub/Launch-DAQ/Libraries/XMCLib/inc\xmc_usic.h **** * USIC channel transmit FIFO interrupt node pointers
 340:C:/Users/Will/Documents/GitHub/Launch-DAQ/Libraries/XMCLib/inc\xmc_usic.h **** */
 341:C:/Users/Will/Documents/GitHub/Launch-DAQ/Libraries/XMCLib/inc\xmc_usic.h **** typedef enum XMC_USIC_CH_TXFIFO_INTERRUPT_NODE_POINTER
 342:C:/Users/Will/Documents/GitHub/Launch-DAQ/Libraries/XMCLib/inc\xmc_usic.h **** {
 343:C:/Users/Will/Documents/GitHub/Launch-DAQ/Libraries/XMCLib/inc\xmc_usic.h ****   XMC_USIC_CH_TXFIFO_INTERRUPT_NODE_POINTER_STANDARD  = USIC_CH_TBCTR_STBINP_Pos,  /**< Node pointe
 344:C:/Users/Will/Documents/GitHub/Launch-DAQ/Libraries/XMCLib/inc\xmc_usic.h ****   XMC_USIC_CH_TXFIFO_INTERRUPT_NODE_POINTER_ALTERNATE = USIC_CH_TBCTR_ATBINP_Pos   /**< Node pointe
 345:C:/Users/Will/Documents/GitHub/Launch-DAQ/Libraries/XMCLib/inc\xmc_usic.h **** } XMC_USIC_CH_TXFIFO_INTERRUPT_NODE_POINTER_t;
 346:C:/Users/Will/Documents/GitHub/Launch-DAQ/Libraries/XMCLib/inc\xmc_usic.h **** 
 347:C:/Users/Will/Documents/GitHub/Launch-DAQ/Libraries/XMCLib/inc\xmc_usic.h **** /**
 348:C:/Users/Will/Documents/GitHub/Launch-DAQ/Libraries/XMCLib/inc\xmc_usic.h **** * USIC channel transmit FIFO event configuration
 349:C:/Users/Will/Documents/GitHub/Launch-DAQ/Libraries/XMCLib/inc\xmc_usic.h **** */
 350:C:/Users/Will/Documents/GitHub/Launch-DAQ/Libraries/XMCLib/inc\xmc_usic.h **** typedef enum XMC_USIC_CH_TXFIFO_EVENT_CONF
 351:C:/Users/Will/Documents/GitHub/Launch-DAQ/Libraries/XMCLib/inc\xmc_usic.h **** {
 352:C:/Users/Will/Documents/GitHub/Launch-DAQ/Libraries/XMCLib/inc\xmc_usic.h ****   XMC_USIC_CH_TXFIFO_EVENT_CONF_STANDARD  = USIC_CH_TBCTR_STBIEN_Msk,   /**< Enable FIFO standard t
 353:C:/Users/Will/Documents/GitHub/Launch-DAQ/Libraries/XMCLib/inc\xmc_usic.h ****   XMC_USIC_CH_TXFIFO_EVENT_CONF_ERROR     = (int32_t)USIC_CH_TBCTR_TBERIEN_Msk  /**< Enable transmi
 354:C:/Users/Will/Documents/GitHub/Launch-DAQ/Libraries/XMCLib/inc\xmc_usic.h **** } XMC_USIC_CH_TXFIFO_EVENT_CONF_t;
 355:C:/Users/Will/Documents/GitHub/Launch-DAQ/Libraries/XMCLib/inc\xmc_usic.h **** 
 356:C:/Users/Will/Documents/GitHub/Launch-DAQ/Libraries/XMCLib/inc\xmc_usic.h **** /**
 357:C:/Users/Will/Documents/GitHub/Launch-DAQ/Libraries/XMCLib/inc\xmc_usic.h **** * USIC channel transmit FIFO status
 358:C:/Users/Will/Documents/GitHub/Launch-DAQ/Libraries/XMCLib/inc\xmc_usic.h **** */
 359:C:/Users/Will/Documents/GitHub/Launch-DAQ/Libraries/XMCLib/inc\xmc_usic.h **** typedef enum XMC_USIC_CH_TXFIFO_EVENT
 360:C:/Users/Will/Documents/GitHub/Launch-DAQ/Libraries/XMCLib/inc\xmc_usic.h **** {
 361:C:/Users/Will/Documents/GitHub/Launch-DAQ/Libraries/XMCLib/inc\xmc_usic.h ****   XMC_USIC_CH_TXFIFO_EVENT_STANDARD = USIC_CH_TRBSR_STBI_Msk,    /**< Transmit FIFO status: Standar
 362:C:/Users/Will/Documents/GitHub/Launch-DAQ/Libraries/XMCLib/inc\xmc_usic.h ****   XMC_USIC_CH_TXFIFO_EVENT_ERROR    = USIC_CH_TRBSR_TBERI_Msk    /**< Transmit FIFO status: Error e
 363:C:/Users/Will/Documents/GitHub/Launch-DAQ/Libraries/XMCLib/inc\xmc_usic.h **** } XMC_USIC_CH_TXFIFO_EVENT_t;
 364:C:/Users/Will/Documents/GitHub/Launch-DAQ/Libraries/XMCLib/inc\xmc_usic.h **** 
 365:C:/Users/Will/Documents/GitHub/Launch-DAQ/Libraries/XMCLib/inc\xmc_usic.h **** /**
 366:C:/Users/Will/Documents/GitHub/Launch-DAQ/Libraries/XMCLib/inc\xmc_usic.h **** * USIC channel receive FIFO interrupt node pointers
 367:C:/Users/Will/Documents/GitHub/Launch-DAQ/Libraries/XMCLib/inc\xmc_usic.h **** */
 368:C:/Users/Will/Documents/GitHub/Launch-DAQ/Libraries/XMCLib/inc\xmc_usic.h **** typedef enum XMC_USIC_CH_RXFIFO_INTERRUPT_NODE_POINTER
 369:C:/Users/Will/Documents/GitHub/Launch-DAQ/Libraries/XMCLib/inc\xmc_usic.h **** {
 370:C:/Users/Will/Documents/GitHub/Launch-DAQ/Libraries/XMCLib/inc\xmc_usic.h ****   XMC_USIC_CH_RXFIFO_INTERRUPT_NODE_POINTER_STANDARD  = USIC_CH_RBCTR_SRBINP_Pos, /**< Node pointer
 371:C:/Users/Will/Documents/GitHub/Launch-DAQ/Libraries/XMCLib/inc\xmc_usic.h ****   XMC_USIC_CH_RXFIFO_INTERRUPT_NODE_POINTER_ALTERNATE = USIC_CH_RBCTR_ARBINP_Pos  /**< Node pointer
 372:C:/Users/Will/Documents/GitHub/Launch-DAQ/Libraries/XMCLib/inc\xmc_usic.h **** } XMC_USIC_CH_RXFIFO_INTERRUPT_NODE_POINTER_t;
 373:C:/Users/Will/Documents/GitHub/Launch-DAQ/Libraries/XMCLib/inc\xmc_usic.h **** 
 374:C:/Users/Will/Documents/GitHub/Launch-DAQ/Libraries/XMCLib/inc\xmc_usic.h **** /**
 375:C:/Users/Will/Documents/GitHub/Launch-DAQ/Libraries/XMCLib/inc\xmc_usic.h **** * USIC channel receive FIFO event configuration
 376:C:/Users/Will/Documents/GitHub/Launch-DAQ/Libraries/XMCLib/inc\xmc_usic.h **** */
 377:C:/Users/Will/Documents/GitHub/Launch-DAQ/Libraries/XMCLib/inc\xmc_usic.h **** typedef enum XMC_USIC_CH_RXFIFO_EVENT_CONF
 378:C:/Users/Will/Documents/GitHub/Launch-DAQ/Libraries/XMCLib/inc\xmc_usic.h **** {
 379:C:/Users/Will/Documents/GitHub/Launch-DAQ/Libraries/XMCLib/inc\xmc_usic.h ****   XMC_USIC_CH_RXFIFO_EVENT_CONF_STANDARD  = USIC_CH_RBCTR_SRBIEN_Msk,   /**< Enable FIFO standard r
 380:C:/Users/Will/Documents/GitHub/Launch-DAQ/Libraries/XMCLib/inc\xmc_usic.h ****   XMC_USIC_CH_RXFIFO_EVENT_CONF_ERROR     = (int32_t)USIC_CH_RBCTR_RBERIEN_Msk,  /**< Enable receiv
 381:C:/Users/Will/Documents/GitHub/Launch-DAQ/Libraries/XMCLib/inc\xmc_usic.h ****   XMC_USIC_CH_RXFIFO_EVENT_CONF_ALTERNATE = USIC_CH_RBCTR_ARBIEN_Msk   /**< Enable FIFO alternative
 382:C:/Users/Will/Documents/GitHub/Launch-DAQ/Libraries/XMCLib/inc\xmc_usic.h **** } XMC_USIC_CH_RXFIFO_EVENT_CONF_t;
 383:C:/Users/Will/Documents/GitHub/Launch-DAQ/Libraries/XMCLib/inc\xmc_usic.h **** 
 384:C:/Users/Will/Documents/GitHub/Launch-DAQ/Libraries/XMCLib/inc\xmc_usic.h **** /**
 385:C:/Users/Will/Documents/GitHub/Launch-DAQ/Libraries/XMCLib/inc\xmc_usic.h **** * USIC channel receive FIFO status
 386:C:/Users/Will/Documents/GitHub/Launch-DAQ/Libraries/XMCLib/inc\xmc_usic.h **** */
 387:C:/Users/Will/Documents/GitHub/Launch-DAQ/Libraries/XMCLib/inc\xmc_usic.h **** typedef enum XMC_USIC_CH_RXFIFO_EVENT
 388:C:/Users/Will/Documents/GitHub/Launch-DAQ/Libraries/XMCLib/inc\xmc_usic.h **** {
 389:C:/Users/Will/Documents/GitHub/Launch-DAQ/Libraries/XMCLib/inc\xmc_usic.h ****   XMC_USIC_CH_RXFIFO_EVENT_STANDARD  = USIC_CH_TRBSR_SRBI_Msk,   /**< Receive FIFO status: Standard
 390:C:/Users/Will/Documents/GitHub/Launch-DAQ/Libraries/XMCLib/inc\xmc_usic.h ****   XMC_USIC_CH_RXFIFO_EVENT_ERROR     = USIC_CH_TRBSR_RBERI_Msk,  /**< Receive FIFO status: Error ev
 391:C:/Users/Will/Documents/GitHub/Launch-DAQ/Libraries/XMCLib/inc\xmc_usic.h ****   XMC_USIC_CH_RXFIFO_EVENT_ALTERNATE = USIC_CH_TRBSR_ARBI_Msk    /**< Receive FIFO status: Alternat
 392:C:/Users/Will/Documents/GitHub/Launch-DAQ/Libraries/XMCLib/inc\xmc_usic.h **** } XMC_USIC_CH_RXFIFO_EVENT_t;
 393:C:/Users/Will/Documents/GitHub/Launch-DAQ/Libraries/XMCLib/inc\xmc_usic.h **** 
 394:C:/Users/Will/Documents/GitHub/Launch-DAQ/Libraries/XMCLib/inc\xmc_usic.h **** /**
 395:C:/Users/Will/Documents/GitHub/Launch-DAQ/Libraries/XMCLib/inc\xmc_usic.h **** * USIC channel baudrate generator clock source
 396:C:/Users/Will/Documents/GitHub/Launch-DAQ/Libraries/XMCLib/inc\xmc_usic.h **** */
 397:C:/Users/Will/Documents/GitHub/Launch-DAQ/Libraries/XMCLib/inc\xmc_usic.h **** typedef enum XMC_USIC_CH_BRG_CLOCK_SOURCE
 398:C:/Users/Will/Documents/GitHub/Launch-DAQ/Libraries/XMCLib/inc\xmc_usic.h **** {
 399:C:/Users/Will/Documents/GitHub/Launch-DAQ/Libraries/XMCLib/inc\xmc_usic.h ****   XMC_USIC_CH_BRG_CLOCK_SOURCE_DIVIDER = 0x0UL, /**< Baudrate generator clock source : Source divid
 400:C:/Users/Will/Documents/GitHub/Launch-DAQ/Libraries/XMCLib/inc\xmc_usic.h ****   XMC_USIC_CH_BRG_CLOCK_SOURCE_DX1T    = 0x2UL << USIC_CH_BRG_CLKSEL_Pos  /**< Baudrate generator c
 401:C:/Users/Will/Documents/GitHub/Launch-DAQ/Libraries/XMCLib/inc\xmc_usic.h **** } XMC_USIC_CH_BRG_CLOCK_SOURCE_t;
 402:C:/Users/Will/Documents/GitHub/Launch-DAQ/Libraries/XMCLib/inc\xmc_usic.h **** 
 403:C:/Users/Will/Documents/GitHub/Launch-DAQ/Libraries/XMCLib/inc\xmc_usic.h **** /**
 404:C:/Users/Will/Documents/GitHub/Launch-DAQ/Libraries/XMCLib/inc\xmc_usic.h **** * USIC channel baudrate generator divider mode
 405:C:/Users/Will/Documents/GitHub/Launch-DAQ/Libraries/XMCLib/inc\xmc_usic.h **** */
 406:C:/Users/Will/Documents/GitHub/Launch-DAQ/Libraries/XMCLib/inc\xmc_usic.h **** typedef enum XMC_USIC_CH_BRG_CLOCK_DIVIDER_MODE
 407:C:/Users/Will/Documents/GitHub/Launch-DAQ/Libraries/XMCLib/inc\xmc_usic.h **** {
 408:C:/Users/Will/Documents/GitHub/Launch-DAQ/Libraries/XMCLib/inc\xmc_usic.h ****   XMC_USIC_CH_BRG_CLOCK_DIVIDER_MODE_DISABLED   = 0x0UL, /**< Baudrate generator clock divider: Dis
 409:C:/Users/Will/Documents/GitHub/Launch-DAQ/Libraries/XMCLib/inc\xmc_usic.h ****   XMC_USIC_CH_BRG_CLOCK_DIVIDER_MODE_NORMAL     = 0x1UL << USIC_CH_FDR_DM_Pos, /**< Baudrate genera
 410:C:/Users/Will/Documents/GitHub/Launch-DAQ/Libraries/XMCLib/inc\xmc_usic.h ****   XMC_USIC_CH_BRG_CLOCK_DIVIDER_MODE_FRACTIONAL = 0x2UL << USIC_CH_FDR_DM_Pos  /**< Baudrate genera
 411:C:/Users/Will/Documents/GitHub/Launch-DAQ/Libraries/XMCLib/inc\xmc_usic.h **** } XMC_USIC_CH_BRG_CLOCK_DIVIDER_MODE_t;
 412:C:/Users/Will/Documents/GitHub/Launch-DAQ/Libraries/XMCLib/inc\xmc_usic.h **** 
 413:C:/Users/Will/Documents/GitHub/Launch-DAQ/Libraries/XMCLib/inc\xmc_usic.h **** /**
 414:C:/Users/Will/Documents/GitHub/Launch-DAQ/Libraries/XMCLib/inc\xmc_usic.h **** * USIC channel baudrate generator master clock passive level
 415:C:/Users/Will/Documents/GitHub/Launch-DAQ/Libraries/XMCLib/inc\xmc_usic.h **** */
 416:C:/Users/Will/Documents/GitHub/Launch-DAQ/Libraries/XMCLib/inc\xmc_usic.h **** typedef enum XMC_USIC_CH_BRG_MASTER_CLOCK_PASSIVE_LEVEL
 417:C:/Users/Will/Documents/GitHub/Launch-DAQ/Libraries/XMCLib/inc\xmc_usic.h **** {
 418:C:/Users/Will/Documents/GitHub/Launch-DAQ/Libraries/XMCLib/inc\xmc_usic.h ****   XMC_USIC_CH_BRG_MASTER_CLOCK_PASSIVE_LEVEL_0 = 0x0UL, /**< Baudrate generator master clock passiv
 419:C:/Users/Will/Documents/GitHub/Launch-DAQ/Libraries/XMCLib/inc\xmc_usic.h ****   XMC_USIC_CH_BRG_MASTER_CLOCK_PASSIVE_LEVEL_1 = 0x1UL << USIC_CH_BRG_MCLKCFG_Pos  /**< Baudrate ge
 420:C:/Users/Will/Documents/GitHub/Launch-DAQ/Libraries/XMCLib/inc\xmc_usic.h **** } XMC_USIC_CH_BRG_MASTER_CLOCK_PASSIVE_LEVEL_t;
 421:C:/Users/Will/Documents/GitHub/Launch-DAQ/Libraries/XMCLib/inc\xmc_usic.h **** 
 422:C:/Users/Will/Documents/GitHub/Launch-DAQ/Libraries/XMCLib/inc\xmc_usic.h **** /**
 423:C:/Users/Will/Documents/GitHub/Launch-DAQ/Libraries/XMCLib/inc\xmc_usic.h **** * USIC channel baudrate generator shift clock passive level
 424:C:/Users/Will/Documents/GitHub/Launch-DAQ/Libraries/XMCLib/inc\xmc_usic.h **** */
 425:C:/Users/Will/Documents/GitHub/Launch-DAQ/Libraries/XMCLib/inc\xmc_usic.h **** typedef enum XMC_USIC_CH_BRG_SHIFT_CLOCK_PASSIVE_LEVEL
 426:C:/Users/Will/Documents/GitHub/Launch-DAQ/Libraries/XMCLib/inc\xmc_usic.h **** {
 427:C:/Users/Will/Documents/GitHub/Launch-DAQ/Libraries/XMCLib/inc\xmc_usic.h ****   XMC_USIC_CH_BRG_SHIFT_CLOCK_PASSIVE_LEVEL_0_DELAY_DISABLED = 0x0UL, /**< Shift clock passive leve
 428:C:/Users/Will/Documents/GitHub/Launch-DAQ/Libraries/XMCLib/inc\xmc_usic.h ****   XMC_USIC_CH_BRG_SHIFT_CLOCK_PASSIVE_LEVEL_1_DELAY_DISABLED = 0x1UL << USIC_CH_BRG_SCLKCFG_Pos, /*
 429:C:/Users/Will/Documents/GitHub/Launch-DAQ/Libraries/XMCLib/inc\xmc_usic.h ****   XMC_USIC_CH_BRG_SHIFT_CLOCK_PASSIVE_LEVEL_0_DELAY_ENABLED  = (int32_t)(0x2UL << USIC_CH_BRG_SCLKC
 430:C:/Users/Will/Documents/GitHub/Launch-DAQ/Libraries/XMCLib/inc\xmc_usic.h ****   XMC_USIC_CH_BRG_SHIFT_CLOCK_PASSIVE_LEVEL_1_DELAY_ENABLED  = (int32_t)(0x3UL << USIC_CH_BRG_SCLKC
 431:C:/Users/Will/Documents/GitHub/Launch-DAQ/Libraries/XMCLib/inc\xmc_usic.h **** } XMC_USIC_CH_BRG_SHIFT_CLOCK_PASSIVE_LEVEL_t;
 432:C:/Users/Will/Documents/GitHub/Launch-DAQ/Libraries/XMCLib/inc\xmc_usic.h **** 
 433:C:/Users/Will/Documents/GitHub/Launch-DAQ/Libraries/XMCLib/inc\xmc_usic.h **** /**
 434:C:/Users/Will/Documents/GitHub/Launch-DAQ/Libraries/XMCLib/inc\xmc_usic.h **** * USIC channel baudrate generator shift clock output
 435:C:/Users/Will/Documents/GitHub/Launch-DAQ/Libraries/XMCLib/inc\xmc_usic.h **** */
 436:C:/Users/Will/Documents/GitHub/Launch-DAQ/Libraries/XMCLib/inc\xmc_usic.h **** typedef enum XMC_USIC_CH_BRG_SHIFT_CLOCK_OUTPUT
 437:C:/Users/Will/Documents/GitHub/Launch-DAQ/Libraries/XMCLib/inc\xmc_usic.h **** {
 438:C:/Users/Will/Documents/GitHub/Launch-DAQ/Libraries/XMCLib/inc\xmc_usic.h ****   XMC_USIC_CH_BRG_SHIFT_CLOCK_OUTPUT_SCLK = 0x0UL, /**< Baudrate generator shift clock output: SCL.
 439:C:/Users/Will/Documents/GitHub/Launch-DAQ/Libraries/XMCLib/inc\xmc_usic.h ****   XMC_USIC_CH_BRG_SHIFT_CLOCK_OUTPUT_DX1 = 0x1UL << USIC_CH_BRG_SCLKOSEL_Pos   /**< Baudrate genera
 440:C:/Users/Will/Documents/GitHub/Launch-DAQ/Libraries/XMCLib/inc\xmc_usic.h **** } XMC_USIC_CH_BRG_SHIFT_CLOCK_OUTPUT_t;
 441:C:/Users/Will/Documents/GitHub/Launch-DAQ/Libraries/XMCLib/inc\xmc_usic.h **** 
 442:C:/Users/Will/Documents/GitHub/Launch-DAQ/Libraries/XMCLib/inc\xmc_usic.h **** /*******************************************************************************
 443:C:/Users/Will/Documents/GitHub/Launch-DAQ/Libraries/XMCLib/inc\xmc_usic.h ****  * DATA STRUCTURES
 444:C:/Users/Will/Documents/GitHub/Launch-DAQ/Libraries/XMCLib/inc\xmc_usic.h ****  *******************************************************************************/
 445:C:/Users/Will/Documents/GitHub/Launch-DAQ/Libraries/XMCLib/inc\xmc_usic.h **** 
 446:C:/Users/Will/Documents/GitHub/Launch-DAQ/Libraries/XMCLib/inc\xmc_usic.h **** /*Anonymous structure/union guard start*/
 447:C:/Users/Will/Documents/GitHub/Launch-DAQ/Libraries/XMCLib/inc\xmc_usic.h **** #if defined(__CC_ARM)
 448:C:/Users/Will/Documents/GitHub/Launch-DAQ/Libraries/XMCLib/inc\xmc_usic.h ****   #pragma push
 449:C:/Users/Will/Documents/GitHub/Launch-DAQ/Libraries/XMCLib/inc\xmc_usic.h ****   #pragma anon_unions
 450:C:/Users/Will/Documents/GitHub/Launch-DAQ/Libraries/XMCLib/inc\xmc_usic.h **** #elif defined(__TASKING__)
 451:C:/Users/Will/Documents/GitHub/Launch-DAQ/Libraries/XMCLib/inc\xmc_usic.h ****   #pragma warning 586
 452:C:/Users/Will/Documents/GitHub/Launch-DAQ/Libraries/XMCLib/inc\xmc_usic.h **** #endif
 453:C:/Users/Will/Documents/GitHub/Launch-DAQ/Libraries/XMCLib/inc\xmc_usic.h **** 
 454:C:/Users/Will/Documents/GitHub/Launch-DAQ/Libraries/XMCLib/inc\xmc_usic.h **** /**
 455:C:/Users/Will/Documents/GitHub/Launch-DAQ/Libraries/XMCLib/inc\xmc_usic.h ****  * USIC module structure
 456:C:/Users/Will/Documents/GitHub/Launch-DAQ/Libraries/XMCLib/inc\xmc_usic.h ****  */
 457:C:/Users/Will/Documents/GitHub/Launch-DAQ/Libraries/XMCLib/inc\xmc_usic.h **** typedef USIC_GLOBAL_TypeDef XMC_USIC_t;
 458:C:/Users/Will/Documents/GitHub/Launch-DAQ/Libraries/XMCLib/inc\xmc_usic.h **** 
 459:C:/Users/Will/Documents/GitHub/Launch-DAQ/Libraries/XMCLib/inc\xmc_usic.h **** /**
 460:C:/Users/Will/Documents/GitHub/Launch-DAQ/Libraries/XMCLib/inc\xmc_usic.h ****  * USIC channel structure.<br> The members of the structure are same as in the device header file, 
 461:C:/Users/Will/Documents/GitHub/Launch-DAQ/Libraries/XMCLib/inc\xmc_usic.h ****  * except for some registers.
 462:C:/Users/Will/Documents/GitHub/Launch-DAQ/Libraries/XMCLib/inc\xmc_usic.h ****  * DX0CR, DX1CR, DX2CR, DX3CR, DX4CR and DX5CR are replaced with the array DXCR[6].
 463:C:/Users/Will/Documents/GitHub/Launch-DAQ/Libraries/XMCLib/inc\xmc_usic.h ****  * TBUF0 to TBUF31 are replaced with TBUF[32].
 464:C:/Users/Will/Documents/GitHub/Launch-DAQ/Libraries/XMCLib/inc\xmc_usic.h ****  * IN0 to IN31 are replaced with IN[32].
 465:C:/Users/Will/Documents/GitHub/Launch-DAQ/Libraries/XMCLib/inc\xmc_usic.h ****  */
 466:C:/Users/Will/Documents/GitHub/Launch-DAQ/Libraries/XMCLib/inc\xmc_usic.h **** typedef struct XMC_USIC_CH
 467:C:/Users/Will/Documents/GitHub/Launch-DAQ/Libraries/XMCLib/inc\xmc_usic.h **** {
 468:C:/Users/Will/Documents/GitHub/Launch-DAQ/Libraries/XMCLib/inc\xmc_usic.h ****   __I  uint32_t  RESERVED0;
 469:C:/Users/Will/Documents/GitHub/Launch-DAQ/Libraries/XMCLib/inc\xmc_usic.h ****   __I  uint32_t  CCFG;			/**< Channel configuration register*/
 470:C:/Users/Will/Documents/GitHub/Launch-DAQ/Libraries/XMCLib/inc\xmc_usic.h ****   __I  uint32_t  RESERVED1;
 471:C:/Users/Will/Documents/GitHub/Launch-DAQ/Libraries/XMCLib/inc\xmc_usic.h ****   __IO uint32_t  KSCFG;			/**< Kernel state configuration register*/
 472:C:/Users/Will/Documents/GitHub/Launch-DAQ/Libraries/XMCLib/inc\xmc_usic.h ****   __IO uint32_t  FDR;			/**< Fractional divider configuration register*/
 473:C:/Users/Will/Documents/GitHub/Launch-DAQ/Libraries/XMCLib/inc\xmc_usic.h ****   __IO uint32_t  BRG;			/**< Baud rate generator register*/
 474:C:/Users/Will/Documents/GitHub/Launch-DAQ/Libraries/XMCLib/inc\xmc_usic.h ****   __IO uint32_t  INPR;			/**< Interrupt node pointer register*/
 475:C:/Users/Will/Documents/GitHub/Launch-DAQ/Libraries/XMCLib/inc\xmc_usic.h ****   __IO uint32_t  DXCR[6];		/**< Input control registers DX0 to DX5.*/
 476:C:/Users/Will/Documents/GitHub/Launch-DAQ/Libraries/XMCLib/inc\xmc_usic.h ****   __IO uint32_t  SCTR;			/**< Shift control register*/
 477:C:/Users/Will/Documents/GitHub/Launch-DAQ/Libraries/XMCLib/inc\xmc_usic.h ****   __IO uint32_t  TCSR;
 478:C:/Users/Will/Documents/GitHub/Launch-DAQ/Libraries/XMCLib/inc\xmc_usic.h **** 
 479:C:/Users/Will/Documents/GitHub/Launch-DAQ/Libraries/XMCLib/inc\xmc_usic.h ****   union {
 480:C:/Users/Will/Documents/GitHub/Launch-DAQ/Libraries/XMCLib/inc\xmc_usic.h ****     __IO uint32_t  PCR_IICMode;	/**< I2C protocol configuration register*/
 481:C:/Users/Will/Documents/GitHub/Launch-DAQ/Libraries/XMCLib/inc\xmc_usic.h ****     __IO uint32_t  PCR_IISMode; /**< I2S protocol configuration register*/
 482:C:/Users/Will/Documents/GitHub/Launch-DAQ/Libraries/XMCLib/inc\xmc_usic.h ****     __IO uint32_t  PCR_SSCMode;	/**< SPI protocol configuration register*/
 483:C:/Users/Will/Documents/GitHub/Launch-DAQ/Libraries/XMCLib/inc\xmc_usic.h ****     __IO uint32_t  PCR;			/**< Protocol configuration register*/
 484:C:/Users/Will/Documents/GitHub/Launch-DAQ/Libraries/XMCLib/inc\xmc_usic.h ****     __IO uint32_t  PCR_ASCMode;	/**< UART protocol configuration register*/
 485:C:/Users/Will/Documents/GitHub/Launch-DAQ/Libraries/XMCLib/inc\xmc_usic.h ****   };
 486:C:/Users/Will/Documents/GitHub/Launch-DAQ/Libraries/XMCLib/inc\xmc_usic.h ****   __IO uint32_t  CCR;			/**< Channel control register*/
 487:C:/Users/Will/Documents/GitHub/Launch-DAQ/Libraries/XMCLib/inc\xmc_usic.h ****   __IO uint32_t  CMTR;			/**< Capture mode timer register*/
 488:C:/Users/Will/Documents/GitHub/Launch-DAQ/Libraries/XMCLib/inc\xmc_usic.h **** 
 489:C:/Users/Will/Documents/GitHub/Launch-DAQ/Libraries/XMCLib/inc\xmc_usic.h ****   union {
 490:C:/Users/Will/Documents/GitHub/Launch-DAQ/Libraries/XMCLib/inc\xmc_usic.h ****     __IO uint32_t  PSR_IICMode;	/**< I2C protocol status register*/
 491:C:/Users/Will/Documents/GitHub/Launch-DAQ/Libraries/XMCLib/inc\xmc_usic.h ****     __IO uint32_t  PSR_IISMode;	/**< I2S protocol status register*/
 492:C:/Users/Will/Documents/GitHub/Launch-DAQ/Libraries/XMCLib/inc\xmc_usic.h ****     __IO uint32_t  PSR_SSCMode;	/**< SPI protocol status register*/
 493:C:/Users/Will/Documents/GitHub/Launch-DAQ/Libraries/XMCLib/inc\xmc_usic.h ****     __IO uint32_t  PSR;			/**< Protocol status register*/
 494:C:/Users/Will/Documents/GitHub/Launch-DAQ/Libraries/XMCLib/inc\xmc_usic.h ****     __IO uint32_t  PSR_ASCMode;	/**< UART protocol status register*/
 495:C:/Users/Will/Documents/GitHub/Launch-DAQ/Libraries/XMCLib/inc\xmc_usic.h ****   };
 496:C:/Users/Will/Documents/GitHub/Launch-DAQ/Libraries/XMCLib/inc\xmc_usic.h ****   __O  uint32_t  PSCR;			/**< Protocol status clear register*/
 497:C:/Users/Will/Documents/GitHub/Launch-DAQ/Libraries/XMCLib/inc\xmc_usic.h ****   __I  uint32_t  RBUFSR;		/**< Receive buffer status register*/
 498:C:/Users/Will/Documents/GitHub/Launch-DAQ/Libraries/XMCLib/inc\xmc_usic.h ****   __I  uint32_t  RBUF;			/**< Receive buffer register*/
 499:C:/Users/Will/Documents/GitHub/Launch-DAQ/Libraries/XMCLib/inc\xmc_usic.h ****   __I  uint32_t  RBUFD;			/**< Debug mode receive buffer register*/
 500:C:/Users/Will/Documents/GitHub/Launch-DAQ/Libraries/XMCLib/inc\xmc_usic.h ****   __I  uint32_t  RBUF0;			/**< Receive buffer 0*/
 501:C:/Users/Will/Documents/GitHub/Launch-DAQ/Libraries/XMCLib/inc\xmc_usic.h ****   __I  uint32_t  RBUF1;			/**< Receive buffer 1*/
 502:C:/Users/Will/Documents/GitHub/Launch-DAQ/Libraries/XMCLib/inc\xmc_usic.h ****   __I  uint32_t  RBUF01SR;		/**< Receive buffer status register*/
 503:C:/Users/Will/Documents/GitHub/Launch-DAQ/Libraries/XMCLib/inc\xmc_usic.h ****   __O  uint32_t  FMR;			/**< Flag modification register*/
 504:C:/Users/Will/Documents/GitHub/Launch-DAQ/Libraries/XMCLib/inc\xmc_usic.h ****   __I  uint32_t  RESERVED2[5];
 505:C:/Users/Will/Documents/GitHub/Launch-DAQ/Libraries/XMCLib/inc\xmc_usic.h ****   __IO uint32_t  TBUF[32];		/**< Tranmsit buffer registers*/
 506:C:/Users/Will/Documents/GitHub/Launch-DAQ/Libraries/XMCLib/inc\xmc_usic.h ****   __IO uint32_t  BYP;			/**< FIFO bypass register*/
 507:C:/Users/Will/Documents/GitHub/Launch-DAQ/Libraries/XMCLib/inc\xmc_usic.h ****   __IO uint32_t  BYPCR;			/**< FIFO bypass control register*/
 508:C:/Users/Will/Documents/GitHub/Launch-DAQ/Libraries/XMCLib/inc\xmc_usic.h ****   __IO uint32_t  TBCTR;			/**< Transmit FIFO control register*/
 509:C:/Users/Will/Documents/GitHub/Launch-DAQ/Libraries/XMCLib/inc\xmc_usic.h ****   __IO uint32_t  RBCTR;			/**< Receive FIFO control register*/
 510:C:/Users/Will/Documents/GitHub/Launch-DAQ/Libraries/XMCLib/inc\xmc_usic.h ****   __I  uint32_t  TRBPTR;		/**< Transmit/recive buffer pointer register*/
 511:C:/Users/Will/Documents/GitHub/Launch-DAQ/Libraries/XMCLib/inc\xmc_usic.h ****   __IO uint32_t  TRBSR;			/**< Transmit/receive buffer status register*/
 512:C:/Users/Will/Documents/GitHub/Launch-DAQ/Libraries/XMCLib/inc\xmc_usic.h ****   __O  uint32_t  TRBSCR;		/**< Transmit/receive buffer status clear register*/
 513:C:/Users/Will/Documents/GitHub/Launch-DAQ/Libraries/XMCLib/inc\xmc_usic.h ****   __I  uint32_t  OUTR;			/**< Receive FIFO output register*/
 514:C:/Users/Will/Documents/GitHub/Launch-DAQ/Libraries/XMCLib/inc\xmc_usic.h ****   __I  uint32_t  OUTDR;			/**< Receive FIFO debug output register*/
 515:C:/Users/Will/Documents/GitHub/Launch-DAQ/Libraries/XMCLib/inc\xmc_usic.h ****   __I  uint32_t  RESERVED3[23];
 516:C:/Users/Will/Documents/GitHub/Launch-DAQ/Libraries/XMCLib/inc\xmc_usic.h ****   __O  uint32_t  IN[32];		/**< Transmit FIFO input register*/
 517:C:/Users/Will/Documents/GitHub/Launch-DAQ/Libraries/XMCLib/inc\xmc_usic.h **** } XMC_USIC_CH_t;
 518:C:/Users/Will/Documents/GitHub/Launch-DAQ/Libraries/XMCLib/inc\xmc_usic.h **** 
 519:C:/Users/Will/Documents/GitHub/Launch-DAQ/Libraries/XMCLib/inc\xmc_usic.h **** 
 520:C:/Users/Will/Documents/GitHub/Launch-DAQ/Libraries/XMCLib/inc\xmc_usic.h **** /*Anonymous structure/union guard end*/
 521:C:/Users/Will/Documents/GitHub/Launch-DAQ/Libraries/XMCLib/inc\xmc_usic.h **** #if defined(__CC_ARM)
 522:C:/Users/Will/Documents/GitHub/Launch-DAQ/Libraries/XMCLib/inc\xmc_usic.h ****   #pragma pop
 523:C:/Users/Will/Documents/GitHub/Launch-DAQ/Libraries/XMCLib/inc\xmc_usic.h **** #elif defined(__TASKING__)
 524:C:/Users/Will/Documents/GitHub/Launch-DAQ/Libraries/XMCLib/inc\xmc_usic.h ****   #pragma warning restore
 525:C:/Users/Will/Documents/GitHub/Launch-DAQ/Libraries/XMCLib/inc\xmc_usic.h **** #endif
 526:C:/Users/Will/Documents/GitHub/Launch-DAQ/Libraries/XMCLib/inc\xmc_usic.h **** 
 527:C:/Users/Will/Documents/GitHub/Launch-DAQ/Libraries/XMCLib/inc\xmc_usic.h **** /*******************************************************************************
 528:C:/Users/Will/Documents/GitHub/Launch-DAQ/Libraries/XMCLib/inc\xmc_usic.h ****  * API PROTOTYPES
 529:C:/Users/Will/Documents/GitHub/Launch-DAQ/Libraries/XMCLib/inc\xmc_usic.h ****  ******************************************************************************/
 530:C:/Users/Will/Documents/GitHub/Launch-DAQ/Libraries/XMCLib/inc\xmc_usic.h **** 
 531:C:/Users/Will/Documents/GitHub/Launch-DAQ/Libraries/XMCLib/inc\xmc_usic.h **** #ifdef __cplusplus
 532:C:/Users/Will/Documents/GitHub/Launch-DAQ/Libraries/XMCLib/inc\xmc_usic.h **** extern "C" {
 533:C:/Users/Will/Documents/GitHub/Launch-DAQ/Libraries/XMCLib/inc\xmc_usic.h **** #endif
 534:C:/Users/Will/Documents/GitHub/Launch-DAQ/Libraries/XMCLib/inc\xmc_usic.h **** 
 535:C:/Users/Will/Documents/GitHub/Launch-DAQ/Libraries/XMCLib/inc\xmc_usic.h **** __STATIC_INLINE bool XMC_USIC_IsModuleValid(const XMC_USIC_t *const module)
 536:C:/Users/Will/Documents/GitHub/Launch-DAQ/Libraries/XMCLib/inc\xmc_usic.h **** {
 537:C:/Users/Will/Documents/GitHub/Launch-DAQ/Libraries/XMCLib/inc\xmc_usic.h ****   bool tmp;
 538:C:/Users/Will/Documents/GitHub/Launch-DAQ/Libraries/XMCLib/inc\xmc_usic.h **** 
 539:C:/Users/Will/Documents/GitHub/Launch-DAQ/Libraries/XMCLib/inc\xmc_usic.h ****   tmp = (module == XMC_USIC0);
 540:C:/Users/Will/Documents/GitHub/Launch-DAQ/Libraries/XMCLib/inc\xmc_usic.h **** #if defined(XMC_USIC1)  
 541:C:/Users/Will/Documents/GitHub/Launch-DAQ/Libraries/XMCLib/inc\xmc_usic.h ****   tmp = tmp || (module == XMC_USIC1);
 542:C:/Users/Will/Documents/GitHub/Launch-DAQ/Libraries/XMCLib/inc\xmc_usic.h **** #endif
 543:C:/Users/Will/Documents/GitHub/Launch-DAQ/Libraries/XMCLib/inc\xmc_usic.h **** #if defined(XMC_USIC2)  
 544:C:/Users/Will/Documents/GitHub/Launch-DAQ/Libraries/XMCLib/inc\xmc_usic.h ****   tmp = tmp || (module == XMC_USIC2);
 545:C:/Users/Will/Documents/GitHub/Launch-DAQ/Libraries/XMCLib/inc\xmc_usic.h **** #endif
 546:C:/Users/Will/Documents/GitHub/Launch-DAQ/Libraries/XMCLib/inc\xmc_usic.h **** 
 547:C:/Users/Will/Documents/GitHub/Launch-DAQ/Libraries/XMCLib/inc\xmc_usic.h ****   return tmp;
 548:C:/Users/Will/Documents/GitHub/Launch-DAQ/Libraries/XMCLib/inc\xmc_usic.h **** }
 549:C:/Users/Will/Documents/GitHub/Launch-DAQ/Libraries/XMCLib/inc\xmc_usic.h **** 
 550:C:/Users/Will/Documents/GitHub/Launch-DAQ/Libraries/XMCLib/inc\xmc_usic.h **** __STATIC_INLINE bool XMC_USIC_IsChannelValid(const XMC_USIC_CH_t *const channel)
 551:C:/Users/Will/Documents/GitHub/Launch-DAQ/Libraries/XMCLib/inc\xmc_usic.h **** {
 552:C:/Users/Will/Documents/GitHub/Launch-DAQ/Libraries/XMCLib/inc\xmc_usic.h ****   bool tmp;
 553:C:/Users/Will/Documents/GitHub/Launch-DAQ/Libraries/XMCLib/inc\xmc_usic.h **** 
 554:C:/Users/Will/Documents/GitHub/Launch-DAQ/Libraries/XMCLib/inc\xmc_usic.h ****   tmp = ((channel == XMC_USIC0_CH0) || (channel == XMC_USIC0_CH1));
 555:C:/Users/Will/Documents/GitHub/Launch-DAQ/Libraries/XMCLib/inc\xmc_usic.h **** #if defined(XMC_USIC1)  
 556:C:/Users/Will/Documents/GitHub/Launch-DAQ/Libraries/XMCLib/inc\xmc_usic.h ****   tmp = tmp || ((channel == XMC_USIC1_CH0) || (channel == XMC_USIC1_CH1));
 557:C:/Users/Will/Documents/GitHub/Launch-DAQ/Libraries/XMCLib/inc\xmc_usic.h **** #endif
 558:C:/Users/Will/Documents/GitHub/Launch-DAQ/Libraries/XMCLib/inc\xmc_usic.h **** #if defined(XMC_USIC2)  
 559:C:/Users/Will/Documents/GitHub/Launch-DAQ/Libraries/XMCLib/inc\xmc_usic.h ****   tmp = tmp || ((channel == XMC_USIC2_CH0) || (channel == XMC_USIC2_CH1));
 560:C:/Users/Will/Documents/GitHub/Launch-DAQ/Libraries/XMCLib/inc\xmc_usic.h **** #endif
 561:C:/Users/Will/Documents/GitHub/Launch-DAQ/Libraries/XMCLib/inc\xmc_usic.h **** 
 562:C:/Users/Will/Documents/GitHub/Launch-DAQ/Libraries/XMCLib/inc\xmc_usic.h ****   return tmp;
 563:C:/Users/Will/Documents/GitHub/Launch-DAQ/Libraries/XMCLib/inc\xmc_usic.h **** }
 564:C:/Users/Will/Documents/GitHub/Launch-DAQ/Libraries/XMCLib/inc\xmc_usic.h **** 
 565:C:/Users/Will/Documents/GitHub/Launch-DAQ/Libraries/XMCLib/inc\xmc_usic.h **** /* Common APIs */
 566:C:/Users/Will/Documents/GitHub/Launch-DAQ/Libraries/XMCLib/inc\xmc_usic.h **** 
 567:C:/Users/Will/Documents/GitHub/Launch-DAQ/Libraries/XMCLib/inc\xmc_usic.h **** /**
 568:C:/Users/Will/Documents/GitHub/Launch-DAQ/Libraries/XMCLib/inc\xmc_usic.h ****  * @param  usic Pointer to USIC module handler of type @ref XMC_USIC_t.\n
 569:C:/Users/Will/Documents/GitHub/Launch-DAQ/Libraries/XMCLib/inc\xmc_usic.h ****  * 				\b Range: @ref XMC_USIC0 to @ref XMC_USIC2 based on device support.
 570:C:/Users/Will/Documents/GitHub/Launch-DAQ/Libraries/XMCLib/inc\xmc_usic.h ****  * @return None
 571:C:/Users/Will/Documents/GitHub/Launch-DAQ/Libraries/XMCLib/inc\xmc_usic.h ****  * 
 572:C:/Users/Will/Documents/GitHub/Launch-DAQ/Libraries/XMCLib/inc\xmc_usic.h ****  * \par<b>Description</b><br>
 573:C:/Users/Will/Documents/GitHub/Launch-DAQ/Libraries/XMCLib/inc\xmc_usic.h ****  * Enables the USIC module.\n\n
 574:C:/Users/Will/Documents/GitHub/Launch-DAQ/Libraries/XMCLib/inc\xmc_usic.h ****  * Enables the clock for the USIC module by following the
 575:C:/Users/Will/Documents/GitHub/Launch-DAQ/Libraries/XMCLib/inc\xmc_usic.h ****  * clock enabling sequence for the selected device.
 576:C:/Users/Will/Documents/GitHub/Launch-DAQ/Libraries/XMCLib/inc\xmc_usic.h ****  *
 577:C:/Users/Will/Documents/GitHub/Launch-DAQ/Libraries/XMCLib/inc\xmc_usic.h ****  * \par<b>Related APIs:</b><BR>
 578:C:/Users/Will/Documents/GitHub/Launch-DAQ/Libraries/XMCLib/inc\xmc_usic.h ****  * XMC_USIC_CH_Enable(), XMC_USIC_Disable() \n\n\n
 579:C:/Users/Will/Documents/GitHub/Launch-DAQ/Libraries/XMCLib/inc\xmc_usic.h ****  */
 580:C:/Users/Will/Documents/GitHub/Launch-DAQ/Libraries/XMCLib/inc\xmc_usic.h **** void XMC_USIC_Enable(XMC_USIC_t *const usic);
 581:C:/Users/Will/Documents/GitHub/Launch-DAQ/Libraries/XMCLib/inc\xmc_usic.h **** /**
 582:C:/Users/Will/Documents/GitHub/Launch-DAQ/Libraries/XMCLib/inc\xmc_usic.h ****  * @param  usic Pointer to USIC module handler of type @ref XMC_USIC_t.\n
 583:C:/Users/Will/Documents/GitHub/Launch-DAQ/Libraries/XMCLib/inc\xmc_usic.h ****  * 				\b Range: @ref XMC_USIC0 to @ref XMC_USIC2 based on device support.
 584:C:/Users/Will/Documents/GitHub/Launch-DAQ/Libraries/XMCLib/inc\xmc_usic.h ****  * @return None
 585:C:/Users/Will/Documents/GitHub/Launch-DAQ/Libraries/XMCLib/inc\xmc_usic.h ****  *
 586:C:/Users/Will/Documents/GitHub/Launch-DAQ/Libraries/XMCLib/inc\xmc_usic.h ****  * \par<b>Description</b><br>
 587:C:/Users/Will/Documents/GitHub/Launch-DAQ/Libraries/XMCLib/inc\xmc_usic.h ****  * Disables the USIC module.\n\n
 588:C:/Users/Will/Documents/GitHub/Launch-DAQ/Libraries/XMCLib/inc\xmc_usic.h ****  * Disables the clock for the USIC module by following the clock
 589:C:/Users/Will/Documents/GitHub/Launch-DAQ/Libraries/XMCLib/inc\xmc_usic.h ****  * disabling sequence for the selected device.
 590:C:/Users/Will/Documents/GitHub/Launch-DAQ/Libraries/XMCLib/inc\xmc_usic.h ****  *
 591:C:/Users/Will/Documents/GitHub/Launch-DAQ/Libraries/XMCLib/inc\xmc_usic.h ****  * \par<b>Related APIs:</b><BR>
 592:C:/Users/Will/Documents/GitHub/Launch-DAQ/Libraries/XMCLib/inc\xmc_usic.h ****  * XMC_USIC_CH_Disable(), XMC_USIC_Enable() \n\n\n
 593:C:/Users/Will/Documents/GitHub/Launch-DAQ/Libraries/XMCLib/inc\xmc_usic.h ****  */
 594:C:/Users/Will/Documents/GitHub/Launch-DAQ/Libraries/XMCLib/inc\xmc_usic.h **** void XMC_USIC_Disable(XMC_USIC_t *const usic);
 595:C:/Users/Will/Documents/GitHub/Launch-DAQ/Libraries/XMCLib/inc\xmc_usic.h **** /**
 596:C:/Users/Will/Documents/GitHub/Launch-DAQ/Libraries/XMCLib/inc\xmc_usic.h ****  * @param  channel Pointer to USIC channel handler of type @ref XMC_USIC_CH_t \n
 597:C:/Users/Will/Documents/GitHub/Launch-DAQ/Libraries/XMCLib/inc\xmc_usic.h ****  * 				   \b Range: @ref XMC_USIC0_CH0, @ref XMC_USIC0_CH1 to @ref XMC_USIC2_CH1 based on device su
 598:C:/Users/Will/Documents/GitHub/Launch-DAQ/Libraries/XMCLib/inc\xmc_usic.h ****  * @return None
 599:C:/Users/Will/Documents/GitHub/Launch-DAQ/Libraries/XMCLib/inc\xmc_usic.h ****  *
 600:C:/Users/Will/Documents/GitHub/Launch-DAQ/Libraries/XMCLib/inc\xmc_usic.h ****  * \par<b>Description</b><br>
 601:C:/Users/Will/Documents/GitHub/Launch-DAQ/Libraries/XMCLib/inc\xmc_usic.h ****  * Enables the USIC channel. \n\n
 602:C:/Users/Will/Documents/GitHub/Launch-DAQ/Libraries/XMCLib/inc\xmc_usic.h ****  * USIC channel is enabled by setting the module enable bit in KSCFG register bitfield MODEN.
 603:C:/Users/Will/Documents/GitHub/Launch-DAQ/Libraries/XMCLib/inc\xmc_usic.h ****  * On enabling, the channel is set to idle mode.
 604:C:/Users/Will/Documents/GitHub/Launch-DAQ/Libraries/XMCLib/inc\xmc_usic.h ****  *
 605:C:/Users/Will/Documents/GitHub/Launch-DAQ/Libraries/XMCLib/inc\xmc_usic.h ****  * \par<b>Related APIs:</b><BR>
 606:C:/Users/Will/Documents/GitHub/Launch-DAQ/Libraries/XMCLib/inc\xmc_usic.h ****  * XMC_USIC_CH_Disable(), XMC_USIC_Enable() \n\n\n
 607:C:/Users/Will/Documents/GitHub/Launch-DAQ/Libraries/XMCLib/inc\xmc_usic.h ****  */
 608:C:/Users/Will/Documents/GitHub/Launch-DAQ/Libraries/XMCLib/inc\xmc_usic.h **** void XMC_USIC_CH_Enable(XMC_USIC_CH_t *const channel);
 609:C:/Users/Will/Documents/GitHub/Launch-DAQ/Libraries/XMCLib/inc\xmc_usic.h **** /**
 610:C:/Users/Will/Documents/GitHub/Launch-DAQ/Libraries/XMCLib/inc\xmc_usic.h ****  * @param  channel Pointer to USIC channel handler of type @ref XMC_USIC_CH_t \n
 611:C:/Users/Will/Documents/GitHub/Launch-DAQ/Libraries/XMCLib/inc\xmc_usic.h ****  * 				   \b Range: @ref XMC_USIC0_CH0, @ref XMC_USIC0_CH1 to @ref XMC_USIC2_CH1 based on device su
 612:C:/Users/Will/Documents/GitHub/Launch-DAQ/Libraries/XMCLib/inc\xmc_usic.h ****  * @return None
 613:C:/Users/Will/Documents/GitHub/Launch-DAQ/Libraries/XMCLib/inc\xmc_usic.h ****  *
 614:C:/Users/Will/Documents/GitHub/Launch-DAQ/Libraries/XMCLib/inc\xmc_usic.h ****  * \par<b>Description</b><br>
 615:C:/Users/Will/Documents/GitHub/Launch-DAQ/Libraries/XMCLib/inc\xmc_usic.h ****  * Disables the USIC channel.\n\n
 616:C:/Users/Will/Documents/GitHub/Launch-DAQ/Libraries/XMCLib/inc\xmc_usic.h ****  * USIC channel is disabled by setting the module enable bit(MDEN) to 0 in the register KSCFG.
 617:C:/Users/Will/Documents/GitHub/Launch-DAQ/Libraries/XMCLib/inc\xmc_usic.h ****  *
 618:C:/Users/Will/Documents/GitHub/Launch-DAQ/Libraries/XMCLib/inc\xmc_usic.h ****  * \par<b>Related APIs:</b><BR>
 619:C:/Users/Will/Documents/GitHub/Launch-DAQ/Libraries/XMCLib/inc\xmc_usic.h ****  * XMC_USIC_CH_Enable(), XMC_USIC_Disable() \n\n\n
 620:C:/Users/Will/Documents/GitHub/Launch-DAQ/Libraries/XMCLib/inc\xmc_usic.h ****  */
 621:C:/Users/Will/Documents/GitHub/Launch-DAQ/Libraries/XMCLib/inc\xmc_usic.h **** void XMC_USIC_CH_Disable(XMC_USIC_CH_t *const channel);
 622:C:/Users/Will/Documents/GitHub/Launch-DAQ/Libraries/XMCLib/inc\xmc_usic.h **** 
 623:C:/Users/Will/Documents/GitHub/Launch-DAQ/Libraries/XMCLib/inc\xmc_usic.h **** /**
 624:C:/Users/Will/Documents/GitHub/Launch-DAQ/Libraries/XMCLib/inc\xmc_usic.h ****  * @param  channel Pointer to USIC channel handler of type @ref XMC_USIC_CH_t \n
 625:C:/Users/Will/Documents/GitHub/Launch-DAQ/Libraries/XMCLib/inc\xmc_usic.h ****  * 				   \b Range: @ref XMC_USIC0_CH0, @ref XMC_USIC0_CH1 to @ref XMC_USIC2_CH1 based on device su
 626:C:/Users/Will/Documents/GitHub/Launch-DAQ/Libraries/XMCLib/inc\xmc_usic.h ****  * @param  rate Desired baudrate. \b Range: minimum value = 100, maximum value depends on the perip
 627:C:/Users/Will/Documents/GitHub/Launch-DAQ/Libraries/XMCLib/inc\xmc_usic.h ****  * 				and \a oversampling. Maximum baudrate can be derived using the formula: (fperiph * 1023)/(10
 628:C:/Users/Will/Documents/GitHub/Launch-DAQ/Libraries/XMCLib/inc\xmc_usic.h ****  * @param  oversampling Required oversampling. The value indicates the number of time quanta for on
 629:C:/Users/Will/Documents/GitHub/Launch-DAQ/Libraries/XMCLib/inc\xmc_usic.h ****  * 						This can be related to the number of samples for each logic state of the data signal. \n
 630:C:/Users/Will/Documents/GitHub/Launch-DAQ/Libraries/XMCLib/inc\xmc_usic.h ****  * 						\b Range: 1 to 32. Value should be chosen based on the protocol used.
 631:C:/Users/Will/Documents/GitHub/Launch-DAQ/Libraries/XMCLib/inc\xmc_usic.h ****  * @return Status indicating the baudrate configuration.\n
 632:C:/Users/Will/Documents/GitHub/Launch-DAQ/Libraries/XMCLib/inc\xmc_usic.h ****  * 			\b Range: @ref XMC_USIC_CH_STATUS_OK if baudrate is successfully configured,
 633:C:/Users/Will/Documents/GitHub/Launch-DAQ/Libraries/XMCLib/inc\xmc_usic.h ****  * 					  @ref XMC_USIC_CH_STATUS_ERROR if desired baudrate or oversampling is invalid.
 634:C:/Users/Will/Documents/GitHub/Launch-DAQ/Libraries/XMCLib/inc\xmc_usic.h ****  *
 635:C:/Users/Will/Documents/GitHub/Launch-DAQ/Libraries/XMCLib/inc\xmc_usic.h ****  * \par<b>Description</b><br>
 636:C:/Users/Will/Documents/GitHub/Launch-DAQ/Libraries/XMCLib/inc\xmc_usic.h ****  * Configures the baudrate of the USIC channel. \n\n
 637:C:/Users/Will/Documents/GitHub/Launch-DAQ/Libraries/XMCLib/inc\xmc_usic.h ****  * Baudrate is configured by considering the peripheral frequency and the desired baudrate.
 638:C:/Users/Will/Documents/GitHub/Launch-DAQ/Libraries/XMCLib/inc\xmc_usic.h ****  * Optimum values of FDR->STEP and BRG->PDIV are calulated and used for generating the desired
 639:C:/Users/Will/Documents/GitHub/Launch-DAQ/Libraries/XMCLib/inc\xmc_usic.h ****  * baudrate.
 640:C:/Users/Will/Documents/GitHub/Launch-DAQ/Libraries/XMCLib/inc\xmc_usic.h ****  *
 641:C:/Users/Will/Documents/GitHub/Launch-DAQ/Libraries/XMCLib/inc\xmc_usic.h ****  * \par<b>Related APIs:</b><BR>
 642:C:/Users/Will/Documents/GitHub/Launch-DAQ/Libraries/XMCLib/inc\xmc_usic.h ****  * XMC_USIC_CH_SetStartTransmisionMode(), XMC_USIC_CH_SetInputSource() \n\n\n
 643:C:/Users/Will/Documents/GitHub/Launch-DAQ/Libraries/XMCLib/inc\xmc_usic.h ****  */
 644:C:/Users/Will/Documents/GitHub/Launch-DAQ/Libraries/XMCLib/inc\xmc_usic.h **** XMC_USIC_CH_STATUS_t XMC_USIC_CH_SetBaudrate(XMC_USIC_CH_t *const channel, uint32_t rate, uint32_t 
 645:C:/Users/Will/Documents/GitHub/Launch-DAQ/Libraries/XMCLib/inc\xmc_usic.h **** 
 646:C:/Users/Will/Documents/GitHub/Launch-DAQ/Libraries/XMCLib/inc\xmc_usic.h **** /**
 647:C:/Users/Will/Documents/GitHub/Launch-DAQ/Libraries/XMCLib/inc\xmc_usic.h ****  * @param  channel Pointer to USIC channel handler of type @ref XMC_USIC_CH_t \n
 648:C:/Users/Will/Documents/GitHub/Launch-DAQ/Libraries/XMCLib/inc\xmc_usic.h ****  * 				   \b Range: @ref XMC_USIC0_CH0, @ref XMC_USIC0_CH1 to @ref XMC_USIC2_CH1 based on device su
 649:C:/Users/Will/Documents/GitHub/Launch-DAQ/Libraries/XMCLib/inc\xmc_usic.h ****  * @param  pdiv Desired divider for the external frequency input. \b Range: minimum value = 1, maxi
 650:C:/Users/Will/Documents/GitHub/Launch-DAQ/Libraries/XMCLib/inc\xmc_usic.h ****  * @param  oversampling Required oversampling. The value indicates the number of time quanta for on
 651:C:/Users/Will/Documents/GitHub/Launch-DAQ/Libraries/XMCLib/inc\xmc_usic.h ****  * 						This can be related to the number of samples for each logic state of the data signal. \n
 652:C:/Users/Will/Documents/GitHub/Launch-DAQ/Libraries/XMCLib/inc\xmc_usic.h ****  * 						\b Range: 1 to 32. Value should be chosen based on the protocol used.
 653:C:/Users/Will/Documents/GitHub/Launch-DAQ/Libraries/XMCLib/inc\xmc_usic.h ****  * @param  combination_mode Selects which edge of the synchronized(and optionally filtered) signal 
 654:C:/Users/Will/Documents/GitHub/Launch-DAQ/Libraries/XMCLib/inc\xmc_usic.h ****  *                          output DXnT of the input stage.
 655:C:/Users/Will/Documents/GitHub/Launch-DAQ/Libraries/XMCLib/inc\xmc_usic.h ****  *
 656:C:/Users/Will/Documents/GitHub/Launch-DAQ/Libraries/XMCLib/inc\xmc_usic.h ****  * @return None
 657:C:/Users/Will/Documents/GitHub/Launch-DAQ/Libraries/XMCLib/inc\xmc_usic.h ****  *
 658:C:/Users/Will/Documents/GitHub/Launch-DAQ/Libraries/XMCLib/inc\xmc_usic.h ****  * \par<b>Description</b><br>
 659:C:/Users/Will/Documents/GitHub/Launch-DAQ/Libraries/XMCLib/inc\xmc_usic.h ****  * Enables the external frequency input for the Baudrate Generator and configures the divider, over
 660:C:/Users/Will/Documents/GitHub/Launch-DAQ/Libraries/XMCLib/inc\xmc_usic.h ****  * the combination mode of the USIC channel. \n\n
 661:C:/Users/Will/Documents/GitHub/Launch-DAQ/Libraries/XMCLib/inc\xmc_usic.h ****  *
 662:C:/Users/Will/Documents/GitHub/Launch-DAQ/Libraries/XMCLib/inc\xmc_usic.h ****  * \par<b>Related APIs:</b><BR>
 663:C:/Users/Will/Documents/GitHub/Launch-DAQ/Libraries/XMCLib/inc\xmc_usic.h ****  * XMC_USIC_CH_SetBRGInputClockSource(), XMC_USIC_CH_SetInputTriggerCombinationMode() \n\n\n
 664:C:/Users/Will/Documents/GitHub/Launch-DAQ/Libraries/XMCLib/inc\xmc_usic.h ****  */
 665:C:/Users/Will/Documents/GitHub/Launch-DAQ/Libraries/XMCLib/inc\xmc_usic.h **** void XMC_USIC_CH_ConfigExternalInputSignalToBRG(XMC_USIC_CH_t *const channel,
 666:C:/Users/Will/Documents/GitHub/Launch-DAQ/Libraries/XMCLib/inc\xmc_usic.h **** 		                                         const uint16_t pdiv,
 667:C:/Users/Will/Documents/GitHub/Launch-DAQ/Libraries/XMCLib/inc\xmc_usic.h **** 												 const uint32_t oversampling,
 668:C:/Users/Will/Documents/GitHub/Launch-DAQ/Libraries/XMCLib/inc\xmc_usic.h **** 												 const XMC_USIC_CH_INPUT_COMBINATION_MODE_t combination_mode);
 669:C:/Users/Will/Documents/GitHub/Launch-DAQ/Libraries/XMCLib/inc\xmc_usic.h **** 
 670:C:/Users/Will/Documents/GitHub/Launch-DAQ/Libraries/XMCLib/inc\xmc_usic.h **** /**
 671:C:/Users/Will/Documents/GitHub/Launch-DAQ/Libraries/XMCLib/inc\xmc_usic.h ****  * @param  channel Pointer to USIC channel handler of type @ref XMC_USIC_CH_t \n
 672:C:/Users/Will/Documents/GitHub/Launch-DAQ/Libraries/XMCLib/inc\xmc_usic.h ****  * 				   \b Range: @ref XMC_USIC0_CH0, @ref XMC_USIC0_CH1 to @ref XMC_USIC2_CH1 based on device su
 673:C:/Users/Will/Documents/GitHub/Launch-DAQ/Libraries/XMCLib/inc\xmc_usic.h ****  * @param  input USIC channel input stage of type @ref XMC_USIC_CH_INPUT_t. \n
 674:C:/Users/Will/Documents/GitHub/Launch-DAQ/Libraries/XMCLib/inc\xmc_usic.h ****  * 				 \b Range: @ref XMC_USIC_CH_INPUT_DX0 to @ref XMC_USIC_CH_INPUT_DX5
 675:C:/Users/Will/Documents/GitHub/Launch-DAQ/Libraries/XMCLib/inc\xmc_usic.h ****  * @param  source Input source select for the input stage. The table below maps the enum value with
 676:C:/Users/Will/Documents/GitHub/Launch-DAQ/Libraries/XMCLib/inc\xmc_usic.h ****  * <table><tr><td>0</td><td>DXnA</td></tr><tr><td>1</td><td>DXnB</td></tr><tr><td>2</td><td>DXnC</t
 677:C:/Users/Will/Documents/GitHub/Launch-DAQ/Libraries/XMCLib/inc\xmc_usic.h ****  * <tr><td>4</td><td>DXnE</td></tr><tr><td>5</td><td>DXnF</td></tr><tr><td>6</td><td>DXnG</td></tr>
 678:C:/Users/Will/Documents/GitHub/Launch-DAQ/Libraries/XMCLib/inc\xmc_usic.h ****  * </tr></table>
 679:C:/Users/Will/Documents/GitHub/Launch-DAQ/Libraries/XMCLib/inc\xmc_usic.h ****  * @return None
 680:C:/Users/Will/Documents/GitHub/Launch-DAQ/Libraries/XMCLib/inc\xmc_usic.h ****  *
 681:C:/Users/Will/Documents/GitHub/Launch-DAQ/Libraries/XMCLib/inc\xmc_usic.h ****  * \par<b>Description</b><br>
 682:C:/Users/Will/Documents/GitHub/Launch-DAQ/Libraries/XMCLib/inc\xmc_usic.h ****  * Selects the data source for USIC input stage.\n\n
 683:C:/Users/Will/Documents/GitHub/Launch-DAQ/Libraries/XMCLib/inc\xmc_usic.h ****  * Selects the input data signal source among DXnA, DXnB.. DXnG for the input stage. The API can be
 684:C:/Users/Will/Documents/GitHub/Launch-DAQ/Libraries/XMCLib/inc\xmc_usic.h ****  * like DX0CR, DX1CR etc. 
 685:C:/Users/Will/Documents/GitHub/Launch-DAQ/Libraries/XMCLib/inc\xmc_usic.h ****  *  
 686:C:/Users/Will/Documents/GitHub/Launch-DAQ/Libraries/XMCLib/inc\xmc_usic.h ****  * \par<b>Related APIs:</b><BR>
 687:C:/Users/Will/Documents/GitHub/Launch-DAQ/Libraries/XMCLib/inc\xmc_usic.h ****  * XMC_USIC_CH_EnableInputInversion(), XMC_USIC_CH_EnableInputDigitalFilter(), XMC_USIC_CH_EnableIn
 688:C:/Users/Will/Documents/GitHub/Launch-DAQ/Libraries/XMCLib/inc\xmc_usic.h ****  * XMC_USIC_CH_SetInputSamplingFreq()\n\n\n
 689:C:/Users/Will/Documents/GitHub/Launch-DAQ/Libraries/XMCLib/inc\xmc_usic.h ****  */
 690:C:/Users/Will/Documents/GitHub/Launch-DAQ/Libraries/XMCLib/inc\xmc_usic.h **** __STATIC_INLINE void XMC_USIC_CH_SetInputSource(XMC_USIC_CH_t *const channel, const XMC_USIC_CH_INP
 691:C:/Users/Will/Documents/GitHub/Launch-DAQ/Libraries/XMCLib/inc\xmc_usic.h **** {
  27              	 .loc 1 691 0
  28              	 .cfi_startproc
  29              	 
  30              	 
  31              	 
  32 0000 80B4     	 push {r7}
  33              	.LCFI0:
  34              	 .cfi_def_cfa_offset 4
  35              	 .cfi_offset 7,-4
  36 0002 83B0     	 sub sp,sp,#12
  37              	.LCFI1:
  38              	 .cfi_def_cfa_offset 16
  39 0004 00AF     	 add r7,sp,#0
  40              	.LCFI2:
  41              	 .cfi_def_cfa_register 7
  42 0006 7860     	 str r0,[r7,#4]
  43 0008 0B46     	 mov r3,r1
  44 000a FB70     	 strb r3,[r7,#3]
  45 000c 1346     	 mov r3,r2
  46 000e BB70     	 strb r3,[r7,#2]
 692:C:/Users/Will/Documents/GitHub/Launch-DAQ/Libraries/XMCLib/inc\xmc_usic.h ****   channel->DXCR[input] = (uint32_t)((channel->DXCR[input] & (uint32_t)(~USIC_CH_DXCR_DSEL_Msk)) |
  47              	 .loc 1 692 0
  48 0010 F878     	 ldrb r0,[r7,#3]
  49 0012 FB78     	 ldrb r3,[r7,#3]
  50 0014 7A68     	 ldr r2,[r7,#4]
  51 0016 0633     	 adds r3,r3,#6
  52 0018 9B00     	 lsls r3,r3,#2
  53 001a 1344     	 add r3,r3,r2
  54 001c 5B68     	 ldr r3,[r3,#4]
  55 001e 23F00702 	 bic r2,r3,#7
 693:C:/Users/Will/Documents/GitHub/Launch-DAQ/Libraries/XMCLib/inc\xmc_usic.h ****                          ((uint32_t)source << USIC_CH_DXCR_DSEL_Pos));
  56              	 .loc 1 693 0
  57 0022 BB78     	 ldrb r3,[r7,#2]
 692:C:/Users/Will/Documents/GitHub/Launch-DAQ/Libraries/XMCLib/inc\xmc_usic.h ****   channel->DXCR[input] = (uint32_t)((channel->DXCR[input] & (uint32_t)(~USIC_CH_DXCR_DSEL_Msk)) |
  58              	 .loc 1 692 0
  59 0024 1A43     	 orrs r2,r2,r3
  60 0026 7968     	 ldr r1,[r7,#4]
  61 0028 831D     	 adds r3,r0,#6
  62 002a 9B00     	 lsls r3,r3,#2
  63 002c 0B44     	 add r3,r3,r1
  64 002e 5A60     	 str r2,[r3,#4]
 694:C:/Users/Will/Documents/GitHub/Launch-DAQ/Libraries/XMCLib/inc\xmc_usic.h **** }
  65              	 .loc 1 694 0
  66 0030 0C37     	 adds r7,r7,#12
  67              	.LCFI3:
  68              	 .cfi_def_cfa_offset 4
  69 0032 BD46     	 mov sp,r7
  70              	.LCFI4:
  71              	 .cfi_def_cfa_register 13
  72              	 
  73 0034 5DF8047B 	 ldr r7,[sp],#4
  74              	.LCFI5:
  75              	 .cfi_restore 7
  76              	 .cfi_def_cfa_offset 0
  77 0038 7047     	 bx lr
  78              	 .cfi_endproc
  79              	.LFE130:
  81 003a 00BF     	 .section .text.XMC_UART_CH_SetSamplePoint,"ax",%progbits
  82              	 .align 2
  83              	 .thumb
  84              	 .thumb_func
  86              	XMC_UART_CH_SetSamplePoint:
  87              	.LFB196:
  88              	 .file 2 "C:/Users/Will/Documents/GitHub/Launch-DAQ/Libraries/XMCLib/inc/xmc_uart.h"
   1:C:/Users/Will/Documents/GitHub/Launch-DAQ/Libraries/XMCLib/inc\xmc_uart.h ****  /**
   2:C:/Users/Will/Documents/GitHub/Launch-DAQ/Libraries/XMCLib/inc\xmc_uart.h ****  * @file xmc_uart.h
   3:C:/Users/Will/Documents/GitHub/Launch-DAQ/Libraries/XMCLib/inc\xmc_uart.h ****  * @date 2016-05-20
   4:C:/Users/Will/Documents/GitHub/Launch-DAQ/Libraries/XMCLib/inc\xmc_uart.h ****  *
   5:C:/Users/Will/Documents/GitHub/Launch-DAQ/Libraries/XMCLib/inc\xmc_uart.h ****  * @cond
   6:C:/Users/Will/Documents/GitHub/Launch-DAQ/Libraries/XMCLib/inc\xmc_uart.h **** ***************************************************************************************************
   7:C:/Users/Will/Documents/GitHub/Launch-DAQ/Libraries/XMCLib/inc\xmc_uart.h ****  * XMClib v2.1.8 - XMC Peripheral Driver Library 
   8:C:/Users/Will/Documents/GitHub/Launch-DAQ/Libraries/XMCLib/inc\xmc_uart.h ****  *
   9:C:/Users/Will/Documents/GitHub/Launch-DAQ/Libraries/XMCLib/inc\xmc_uart.h ****  * Copyright (c) 2015-2016, Infineon Technologies AG
  10:C:/Users/Will/Documents/GitHub/Launch-DAQ/Libraries/XMCLib/inc\xmc_uart.h ****  * All rights reserved.                        
  11:C:/Users/Will/Documents/GitHub/Launch-DAQ/Libraries/XMCLib/inc\xmc_uart.h ****  *                                             
  12:C:/Users/Will/Documents/GitHub/Launch-DAQ/Libraries/XMCLib/inc\xmc_uart.h ****  * Redistribution and use in source and binary forms, with or without modification,are permitted pr
  13:C:/Users/Will/Documents/GitHub/Launch-DAQ/Libraries/XMCLib/inc\xmc_uart.h ****  * following conditions are met:   
  14:C:/Users/Will/Documents/GitHub/Launch-DAQ/Libraries/XMCLib/inc\xmc_uart.h ****  *                                                                              
  15:C:/Users/Will/Documents/GitHub/Launch-DAQ/Libraries/XMCLib/inc\xmc_uart.h ****  * Redistributions of source code must retain the above copyright notice, this list of conditions a
  16:C:/Users/Will/Documents/GitHub/Launch-DAQ/Libraries/XMCLib/inc\xmc_uart.h ****  * disclaimer.                        
  17:C:/Users/Will/Documents/GitHub/Launch-DAQ/Libraries/XMCLib/inc\xmc_uart.h ****  * 
  18:C:/Users/Will/Documents/GitHub/Launch-DAQ/Libraries/XMCLib/inc\xmc_uart.h ****  * Redistributions in binary form must reproduce the above copyright notice, this list of condition
  19:C:/Users/Will/Documents/GitHub/Launch-DAQ/Libraries/XMCLib/inc\xmc_uart.h ****  * disclaimer in the documentation and/or other materials provided with the distribution.          
  20:C:/Users/Will/Documents/GitHub/Launch-DAQ/Libraries/XMCLib/inc\xmc_uart.h ****  * 
  21:C:/Users/Will/Documents/GitHub/Launch-DAQ/Libraries/XMCLib/inc\xmc_uart.h ****  * Neither the name of the copyright holders nor the names of its contributors may be used to endor
  22:C:/Users/Will/Documents/GitHub/Launch-DAQ/Libraries/XMCLib/inc\xmc_uart.h ****  * products derived from this software without specific prior written permission.                  
  23:C:/Users/Will/Documents/GitHub/Launch-DAQ/Libraries/XMCLib/inc\xmc_uart.h ****  *                                                                              
  24:C:/Users/Will/Documents/GitHub/Launch-DAQ/Libraries/XMCLib/inc\xmc_uart.h ****  * THIS SOFTWARE IS PROVIDED BY THE COPYRIGHT HOLDERS AND CONTRIBUTORS "AS IS" AND ANY EXPRESS OR I
  25:C:/Users/Will/Documents/GitHub/Launch-DAQ/Libraries/XMCLib/inc\xmc_uart.h ****  * INCLUDING, BUT NOT LIMITED TO, THE IMPLIED WARRANTIES OF MERCHANTABILITY AND FITNESS FOR A PARTI
  26:C:/Users/Will/Documents/GitHub/Launch-DAQ/Libraries/XMCLib/inc\xmc_uart.h ****  * DISCLAIMED. IN NO EVENT SHALL THE COPYRIGHT HOLDER OR CONTRIBUTORS BE LIABLE  FOR ANY DIRECT, IN
  27:C:/Users/Will/Documents/GitHub/Launch-DAQ/Libraries/XMCLib/inc\xmc_uart.h ****  * SPECIAL, EXEMPLARY, OR CONSEQUENTIAL DAMAGES (INCLUDING, BUT NOT LIMITED TO, PROCUREMENT OF SUBS
  28:C:/Users/Will/Documents/GitHub/Launch-DAQ/Libraries/XMCLib/inc\xmc_uart.h ****  * SERVICES; LOSS OF USE, DATA, OR PROFITS; OR BUSINESS INTERRUPTION) HOWEVER CAUSED AND ON ANY THE
  29:C:/Users/Will/Documents/GitHub/Launch-DAQ/Libraries/XMCLib/inc\xmc_uart.h ****  * WHETHER IN CONTRACT, STRICT LIABILITY,OR TORT (INCLUDING NEGLIGENCE OR OTHERWISE) ARISING IN ANY
  30:C:/Users/Will/Documents/GitHub/Launch-DAQ/Libraries/XMCLib/inc\xmc_uart.h ****  * OF THIS SOFTWARE, EVEN IF ADVISED OF THE POSSIBILITY OF SUCH DAMAGE.                            
  31:C:/Users/Will/Documents/GitHub/Launch-DAQ/Libraries/XMCLib/inc\xmc_uart.h ****  *                                                                              
  32:C:/Users/Will/Documents/GitHub/Launch-DAQ/Libraries/XMCLib/inc\xmc_uart.h ****  * To improve the quality of the software, users are encouraged to share modifications, enhancement
  33:C:/Users/Will/Documents/GitHub/Launch-DAQ/Libraries/XMCLib/inc\xmc_uart.h ****  * Infineon Technologies AG dave@infineon.com).                                                    
  34:C:/Users/Will/Documents/GitHub/Launch-DAQ/Libraries/XMCLib/inc\xmc_uart.h ****  **************************************************************************************************
  35:C:/Users/Will/Documents/GitHub/Launch-DAQ/Libraries/XMCLib/inc\xmc_uart.h ****  *
  36:C:/Users/Will/Documents/GitHub/Launch-DAQ/Libraries/XMCLib/inc\xmc_uart.h ****  * Change History
  37:C:/Users/Will/Documents/GitHub/Launch-DAQ/Libraries/XMCLib/inc\xmc_uart.h ****  * --------------
  38:C:/Users/Will/Documents/GitHub/Launch-DAQ/Libraries/XMCLib/inc\xmc_uart.h ****  *
  39:C:/Users/Will/Documents/GitHub/Launch-DAQ/Libraries/XMCLib/inc\xmc_uart.h ****  * 2015-02-20:
  40:C:/Users/Will/Documents/GitHub/Launch-DAQ/Libraries/XMCLib/inc\xmc_uart.h ****  *     - Initial
  41:C:/Users/Will/Documents/GitHub/Launch-DAQ/Libraries/XMCLib/inc\xmc_uart.h ****  *      
  42:C:/Users/Will/Documents/GitHub/Launch-DAQ/Libraries/XMCLib/inc\xmc_uart.h ****  * 2015-05-20:
  43:C:/Users/Will/Documents/GitHub/Launch-DAQ/Libraries/XMCLib/inc\xmc_uart.h ****  *     - Description updated <br>
  44:C:/Users/Will/Documents/GitHub/Launch-DAQ/Libraries/XMCLib/inc\xmc_uart.h ****  *     - Added XMC_UART_CH_TriggerServiceRequest() and XMC_UART_CH_SelectInterruptNodePointer <br>
  45:C:/Users/Will/Documents/GitHub/Launch-DAQ/Libraries/XMCLib/inc\xmc_uart.h ****  *
  46:C:/Users/Will/Documents/GitHub/Launch-DAQ/Libraries/XMCLib/inc\xmc_uart.h ****  * 2015-06-20:
  47:C:/Users/Will/Documents/GitHub/Launch-DAQ/Libraries/XMCLib/inc\xmc_uart.h ****  *     - Removed version macros and declaration of GetDriverVersion API <br>
  48:C:/Users/Will/Documents/GitHub/Launch-DAQ/Libraries/XMCLib/inc\xmc_uart.h ****  *
  49:C:/Users/Will/Documents/GitHub/Launch-DAQ/Libraries/XMCLib/inc\xmc_uart.h ****  * 2015-09-01:
  50:C:/Users/Will/Documents/GitHub/Launch-DAQ/Libraries/XMCLib/inc\xmc_uart.h ****  *     - Modified XMC_UART_CH_SetInputSource() for avoiding complete DXCR register overwriting. <br
  51:C:/Users/Will/Documents/GitHub/Launch-DAQ/Libraries/XMCLib/inc\xmc_uart.h ****  *     - Modified XMC_UART_CH_EVENT_t enum for supporting XMC_UART_CH_EnableEvent() and XMC_UART_CH
  52:C:/Users/Will/Documents/GitHub/Launch-DAQ/Libraries/XMCLib/inc\xmc_uart.h ****  *       for supporting multiple events configuration <br>
  53:C:/Users/Will/Documents/GitHub/Launch-DAQ/Libraries/XMCLib/inc\xmc_uart.h ****  * 
  54:C:/Users/Will/Documents/GitHub/Launch-DAQ/Libraries/XMCLib/inc\xmc_uart.h ****  * 2016-05-20:
  55:C:/Users/Will/Documents/GitHub/Launch-DAQ/Libraries/XMCLib/inc\xmc_uart.h ****  *     - Added XMC_UART_CH_EnableDataTransmission() and XMC_UART_CH_DisableDataTransmission()
  56:C:/Users/Will/Documents/GitHub/Launch-DAQ/Libraries/XMCLib/inc\xmc_uart.h ****  *
  57:C:/Users/Will/Documents/GitHub/Launch-DAQ/Libraries/XMCLib/inc\xmc_uart.h ****  * @endcond 
  58:C:/Users/Will/Documents/GitHub/Launch-DAQ/Libraries/XMCLib/inc\xmc_uart.h ****  *
  59:C:/Users/Will/Documents/GitHub/Launch-DAQ/Libraries/XMCLib/inc\xmc_uart.h ****  */
  60:C:/Users/Will/Documents/GitHub/Launch-DAQ/Libraries/XMCLib/inc\xmc_uart.h **** 
  61:C:/Users/Will/Documents/GitHub/Launch-DAQ/Libraries/XMCLib/inc\xmc_uart.h **** #ifndef XMC_UART_H
  62:C:/Users/Will/Documents/GitHub/Launch-DAQ/Libraries/XMCLib/inc\xmc_uart.h **** #define XMC_UART_H
  63:C:/Users/Will/Documents/GitHub/Launch-DAQ/Libraries/XMCLib/inc\xmc_uart.h **** 
  64:C:/Users/Will/Documents/GitHub/Launch-DAQ/Libraries/XMCLib/inc\xmc_uart.h **** /**************************************************************************************************
  65:C:/Users/Will/Documents/GitHub/Launch-DAQ/Libraries/XMCLib/inc\xmc_uart.h ****  * HEADER FILES
  66:C:/Users/Will/Documents/GitHub/Launch-DAQ/Libraries/XMCLib/inc\xmc_uart.h ****  **************************************************************************************************
  67:C:/Users/Will/Documents/GitHub/Launch-DAQ/Libraries/XMCLib/inc\xmc_uart.h **** 
  68:C:/Users/Will/Documents/GitHub/Launch-DAQ/Libraries/XMCLib/inc\xmc_uart.h **** #include "xmc_usic.h"
  69:C:/Users/Will/Documents/GitHub/Launch-DAQ/Libraries/XMCLib/inc\xmc_uart.h **** 
  70:C:/Users/Will/Documents/GitHub/Launch-DAQ/Libraries/XMCLib/inc\xmc_uart.h **** /**
  71:C:/Users/Will/Documents/GitHub/Launch-DAQ/Libraries/XMCLib/inc\xmc_uart.h ****  * @addtogroup XMClib XMC Peripheral Library
  72:C:/Users/Will/Documents/GitHub/Launch-DAQ/Libraries/XMCLib/inc\xmc_uart.h ****  * @{
  73:C:/Users/Will/Documents/GitHub/Launch-DAQ/Libraries/XMCLib/inc\xmc_uart.h ****  */
  74:C:/Users/Will/Documents/GitHub/Launch-DAQ/Libraries/XMCLib/inc\xmc_uart.h **** 
  75:C:/Users/Will/Documents/GitHub/Launch-DAQ/Libraries/XMCLib/inc\xmc_uart.h **** /**
  76:C:/Users/Will/Documents/GitHub/Launch-DAQ/Libraries/XMCLib/inc\xmc_uart.h ****  * @addtogroup UART
  77:C:/Users/Will/Documents/GitHub/Launch-DAQ/Libraries/XMCLib/inc\xmc_uart.h ****  * @brief Universal Asynchronous Receiver/Transmitter (UART) driver for XMC microcontroller family.
  78:C:/Users/Will/Documents/GitHub/Launch-DAQ/Libraries/XMCLib/inc\xmc_uart.h ****  *
  79:C:/Users/Will/Documents/GitHub/Launch-DAQ/Libraries/XMCLib/inc\xmc_uart.h ****  * The UART driver uses Universal Serial Interface Channel(USIC) module to implement UART protocol.
  80:C:/Users/Will/Documents/GitHub/Launch-DAQ/Libraries/XMCLib/inc\xmc_uart.h ****  * It provides APIs to configure USIC channel for UART communication. The driver enables the user
  81:C:/Users/Will/Documents/GitHub/Launch-DAQ/Libraries/XMCLib/inc\xmc_uart.h ****  * in getting the status of UART protocol events, configuring interrupt service requests, protocol
  82:C:/Users/Will/Documents/GitHub/Launch-DAQ/Libraries/XMCLib/inc\xmc_uart.h ****  * related parameter configuration etc.
  83:C:/Users/Will/Documents/GitHub/Launch-DAQ/Libraries/XMCLib/inc\xmc_uart.h ****  * 
  84:C:/Users/Will/Documents/GitHub/Launch-DAQ/Libraries/XMCLib/inc\xmc_uart.h ****  * UART driver features:
  85:C:/Users/Will/Documents/GitHub/Launch-DAQ/Libraries/XMCLib/inc\xmc_uart.h ****  * -# Configuration structure XMC_UART_CH_CONFIG_t and initialization function XMC_UART_CH_Init()
  86:C:/Users/Will/Documents/GitHub/Launch-DAQ/Libraries/XMCLib/inc\xmc_uart.h ****  * -# Enumeration of events with their bit masks @ref XMC_UART_CH_EVENT_t, @ref XMC_UART_CH_STATUS_
  87:C:/Users/Will/Documents/GitHub/Launch-DAQ/Libraries/XMCLib/inc\xmc_uart.h ****  * -# Allows the selection of input source for the DX0 input stage using the API XMC_UART_CH_SetInp
  88:C:/Users/Will/Documents/GitHub/Launch-DAQ/Libraries/XMCLib/inc\xmc_uart.h ****  * -# Allows configuration of baudrate using XMC_UART_CH_SetBaudrate() and configuration of data le
  89:C:/Users/Will/Documents/GitHub/Launch-DAQ/Libraries/XMCLib/inc\xmc_uart.h ****  XMC_UART_CH_SetWordLength() and XMC_UART_CH_SetFrameLength()
  90:C:/Users/Will/Documents/GitHub/Launch-DAQ/Libraries/XMCLib/inc\xmc_uart.h ****  * -# Provides the status of UART protocol events, XMC_UART_CH_GetStatusFlag()
  91:C:/Users/Will/Documents/GitHub/Launch-DAQ/Libraries/XMCLib/inc\xmc_uart.h ****  * -# Allows transmission of data using XMC_UART_CH_Transmit() and gets received data using XMC_UAR
  92:C:/Users/Will/Documents/GitHub/Launch-DAQ/Libraries/XMCLib/inc\xmc_uart.h ****  * 
  93:C:/Users/Will/Documents/GitHub/Launch-DAQ/Libraries/XMCLib/inc\xmc_uart.h ****  * @{
  94:C:/Users/Will/Documents/GitHub/Launch-DAQ/Libraries/XMCLib/inc\xmc_uart.h ****  */
  95:C:/Users/Will/Documents/GitHub/Launch-DAQ/Libraries/XMCLib/inc\xmc_uart.h **** 
  96:C:/Users/Will/Documents/GitHub/Launch-DAQ/Libraries/XMCLib/inc\xmc_uart.h **** /**************************************************************************************************
  97:C:/Users/Will/Documents/GitHub/Launch-DAQ/Libraries/XMCLib/inc\xmc_uart.h ****  * MACROS
  98:C:/Users/Will/Documents/GitHub/Launch-DAQ/Libraries/XMCLib/inc\xmc_uart.h ****  **************************************************************************************************
  99:C:/Users/Will/Documents/GitHub/Launch-DAQ/Libraries/XMCLib/inc\xmc_uart.h **** 
 100:C:/Users/Will/Documents/GitHub/Launch-DAQ/Libraries/XMCLib/inc\xmc_uart.h **** #if defined(USIC0)
 101:C:/Users/Will/Documents/GitHub/Launch-DAQ/Libraries/XMCLib/inc\xmc_uart.h **** #define XMC_UART0_CH0 XMC_USIC0_CH0 /**< USIC0 channel 0 base address */
 102:C:/Users/Will/Documents/GitHub/Launch-DAQ/Libraries/XMCLib/inc\xmc_uart.h **** #define XMC_UART0_CH1 XMC_USIC0_CH1 /**< USIC0 channel 1 base address */
 103:C:/Users/Will/Documents/GitHub/Launch-DAQ/Libraries/XMCLib/inc\xmc_uart.h **** #endif
 104:C:/Users/Will/Documents/GitHub/Launch-DAQ/Libraries/XMCLib/inc\xmc_uart.h **** 
 105:C:/Users/Will/Documents/GitHub/Launch-DAQ/Libraries/XMCLib/inc\xmc_uart.h **** #if defined(USIC1)
 106:C:/Users/Will/Documents/GitHub/Launch-DAQ/Libraries/XMCLib/inc\xmc_uart.h **** #define XMC_UART1_CH0 XMC_USIC1_CH0 /**< USIC1 channel 0 base address */
 107:C:/Users/Will/Documents/GitHub/Launch-DAQ/Libraries/XMCLib/inc\xmc_uart.h **** #define XMC_UART1_CH1 XMC_USIC1_CH1 /**< USIC1 channel 1 base address */
 108:C:/Users/Will/Documents/GitHub/Launch-DAQ/Libraries/XMCLib/inc\xmc_uart.h **** #endif
 109:C:/Users/Will/Documents/GitHub/Launch-DAQ/Libraries/XMCLib/inc\xmc_uart.h **** 
 110:C:/Users/Will/Documents/GitHub/Launch-DAQ/Libraries/XMCLib/inc\xmc_uart.h **** #if defined(USIC2)
 111:C:/Users/Will/Documents/GitHub/Launch-DAQ/Libraries/XMCLib/inc\xmc_uart.h **** #define XMC_UART2_CH0 XMC_USIC2_CH0 /**< USIC2 channel 0 base address */
 112:C:/Users/Will/Documents/GitHub/Launch-DAQ/Libraries/XMCLib/inc\xmc_uart.h **** #define XMC_UART2_CH1 XMC_USIC2_CH1 /**< USIC2 channel 1 base address */
 113:C:/Users/Will/Documents/GitHub/Launch-DAQ/Libraries/XMCLib/inc\xmc_uart.h **** #endif
 114:C:/Users/Will/Documents/GitHub/Launch-DAQ/Libraries/XMCLib/inc\xmc_uart.h **** 
 115:C:/Users/Will/Documents/GitHub/Launch-DAQ/Libraries/XMCLib/inc\xmc_uart.h **** /**************************************************************************************************
 116:C:/Users/Will/Documents/GitHub/Launch-DAQ/Libraries/XMCLib/inc\xmc_uart.h ****  * ENUMS
 117:C:/Users/Will/Documents/GitHub/Launch-DAQ/Libraries/XMCLib/inc\xmc_uart.h ****  **************************************************************************************************
 118:C:/Users/Will/Documents/GitHub/Launch-DAQ/Libraries/XMCLib/inc\xmc_uart.h **** 
 119:C:/Users/Will/Documents/GitHub/Launch-DAQ/Libraries/XMCLib/inc\xmc_uart.h **** /**
 120:C:/Users/Will/Documents/GitHub/Launch-DAQ/Libraries/XMCLib/inc\xmc_uart.h ****  * UART driver status
 121:C:/Users/Will/Documents/GitHub/Launch-DAQ/Libraries/XMCLib/inc\xmc_uart.h ****  */
 122:C:/Users/Will/Documents/GitHub/Launch-DAQ/Libraries/XMCLib/inc\xmc_uart.h **** typedef enum XMC_UART_CH_STATUS
 123:C:/Users/Will/Documents/GitHub/Launch-DAQ/Libraries/XMCLib/inc\xmc_uart.h **** {
 124:C:/Users/Will/Documents/GitHub/Launch-DAQ/Libraries/XMCLib/inc\xmc_uart.h ****   XMC_UART_CH_STATUS_OK,     /**< UART driver status : OK*/
 125:C:/Users/Will/Documents/GitHub/Launch-DAQ/Libraries/XMCLib/inc\xmc_uart.h ****   XMC_UART_CH_STATUS_ERROR,  /**< UART driver status : ERROR */
 126:C:/Users/Will/Documents/GitHub/Launch-DAQ/Libraries/XMCLib/inc\xmc_uart.h ****   XMC_UART_CH_STATUS_BUSY    /**< UART driver status : BUSY */
 127:C:/Users/Will/Documents/GitHub/Launch-DAQ/Libraries/XMCLib/inc\xmc_uart.h **** } XMC_UART_CH_STATUS_t;
 128:C:/Users/Will/Documents/GitHub/Launch-DAQ/Libraries/XMCLib/inc\xmc_uart.h **** 
 129:C:/Users/Will/Documents/GitHub/Launch-DAQ/Libraries/XMCLib/inc\xmc_uart.h **** /**
 130:C:/Users/Will/Documents/GitHub/Launch-DAQ/Libraries/XMCLib/inc\xmc_uart.h **** * UART portocol status. The enum values can be used for getting the status of UART channel.
 131:C:/Users/Will/Documents/GitHub/Launch-DAQ/Libraries/XMCLib/inc\xmc_uart.h **** *
 132:C:/Users/Will/Documents/GitHub/Launch-DAQ/Libraries/XMCLib/inc\xmc_uart.h **** */
 133:C:/Users/Will/Documents/GitHub/Launch-DAQ/Libraries/XMCLib/inc\xmc_uart.h **** typedef enum XMC_UART_CH_STATUS_FLAG
 134:C:/Users/Will/Documents/GitHub/Launch-DAQ/Libraries/XMCLib/inc\xmc_uart.h **** {
 135:C:/Users/Will/Documents/GitHub/Launch-DAQ/Libraries/XMCLib/inc\xmc_uart.h ****   XMC_UART_CH_STATUS_FLAG_TRANSMISSION_IDLE = USIC_CH_PSR_ASCMode_TXIDLE_Msk,                 /**< 
 136:C:/Users/Will/Documents/GitHub/Launch-DAQ/Libraries/XMCLib/inc\xmc_uart.h ****   XMC_UART_CH_STATUS_FLAG_RECEPTION_IDLE = USIC_CH_PSR_ASCMode_RXIDLE_Msk,                    /**< 
 137:C:/Users/Will/Documents/GitHub/Launch-DAQ/Libraries/XMCLib/inc\xmc_uart.h ****   XMC_UART_CH_STATUS_FLAG_SYNCHRONIZATION_BREAK_DETECTED = USIC_CH_PSR_ASCMode_SBD_Msk,       /**< 
 138:C:/Users/Will/Documents/GitHub/Launch-DAQ/Libraries/XMCLib/inc\xmc_uart.h ****   XMC_UART_CH_STATUS_FLAG_COLLISION_DETECTED = USIC_CH_PSR_ASCMode_COL_Msk,                   /**< 
 139:C:/Users/Will/Documents/GitHub/Launch-DAQ/Libraries/XMCLib/inc\xmc_uart.h ****   XMC_UART_CH_STATUS_FLAG_RECEIVER_NOISE_DETECTED = USIC_CH_PSR_ASCMode_RNS_Msk,              /**< 
 140:C:/Users/Will/Documents/GitHub/Launch-DAQ/Libraries/XMCLib/inc\xmc_uart.h ****   XMC_UART_CH_STATUS_FLAG_FORMAT_ERROR_IN_STOP_BIT_0 = USIC_CH_PSR_ASCMode_FER0_Msk,          /**< 
 141:C:/Users/Will/Documents/GitHub/Launch-DAQ/Libraries/XMCLib/inc\xmc_uart.h ****   XMC_UART_CH_STATUS_FLAG_FORMAT_ERROR_IN_STOP_BIT_1 = USIC_CH_PSR_ASCMode_FER1_Msk,          /**< 
 142:C:/Users/Will/Documents/GitHub/Launch-DAQ/Libraries/XMCLib/inc\xmc_uart.h ****   XMC_UART_CH_STATUS_FLAG_RECEIVE_FRAME_FINISHED = USIC_CH_PSR_ASCMode_RFF_Msk,               /**< 
 143:C:/Users/Will/Documents/GitHub/Launch-DAQ/Libraries/XMCLib/inc\xmc_uart.h ****   XMC_UART_CH_STATUS_FLAG_TRANSMITTER_FRAME_FINISHED = USIC_CH_PSR_ASCMode_TFF_Msk,           /**< 
 144:C:/Users/Will/Documents/GitHub/Launch-DAQ/Libraries/XMCLib/inc\xmc_uart.h ****   XMC_UART_CH_STATUS_FLAG_TRANSFER_STATUS_BUSY = USIC_CH_PSR_ASCMode_BUSY_Msk,                /**< 
 145:C:/Users/Will/Documents/GitHub/Launch-DAQ/Libraries/XMCLib/inc\xmc_uart.h ****   XMC_UART_CH_STATUS_FLAG_RECEIVER_START_INDICATION = USIC_CH_PSR_ASCMode_RSIF_Msk,           /**< 
 146:C:/Users/Will/Documents/GitHub/Launch-DAQ/Libraries/XMCLib/inc\xmc_uart.h ****   XMC_UART_CH_STATUS_FLAG_DATA_LOST_INDICATION = USIC_CH_PSR_ASCMode_DLIF_Msk,                /**< 
 147:C:/Users/Will/Documents/GitHub/Launch-DAQ/Libraries/XMCLib/inc\xmc_uart.h ****   XMC_UART_CH_STATUS_FLAG_TRANSMIT_SHIFT_INDICATION = USIC_CH_PSR_ASCMode_TSIF_Msk,           /**< 
 148:C:/Users/Will/Documents/GitHub/Launch-DAQ/Libraries/XMCLib/inc\xmc_uart.h ****   XMC_UART_CH_STATUS_FLAG_TRANSMIT_BUFFER_INDICATION = USIC_CH_PSR_ASCMode_TBIF_Msk,          /**< 
 149:C:/Users/Will/Documents/GitHub/Launch-DAQ/Libraries/XMCLib/inc\xmc_uart.h ****   XMC_UART_CH_STATUS_FLAG_RECEIVE_INDICATION = USIC_CH_PSR_ASCMode_RIF_Msk,                   /**< 
 150:C:/Users/Will/Documents/GitHub/Launch-DAQ/Libraries/XMCLib/inc\xmc_uart.h ****   XMC_UART_CH_STATUS_FLAG_ALTERNATIVE_RECEIVE_INDICATION = USIC_CH_PSR_ASCMode_AIF_Msk,       /**< 
 151:C:/Users/Will/Documents/GitHub/Launch-DAQ/Libraries/XMCLib/inc\xmc_uart.h ****   XMC_UART_CH_STATUS_FLAG_BAUD_RATE_GENERATOR_INDICATION = USIC_CH_PSR_ASCMode_BRGIF_Msk      /**< 
 152:C:/Users/Will/Documents/GitHub/Launch-DAQ/Libraries/XMCLib/inc\xmc_uart.h **** } XMC_UART_CH_STATUS_FLAG_t;
 153:C:/Users/Will/Documents/GitHub/Launch-DAQ/Libraries/XMCLib/inc\xmc_uart.h **** 
 154:C:/Users/Will/Documents/GitHub/Launch-DAQ/Libraries/XMCLib/inc\xmc_uart.h **** /**
 155:C:/Users/Will/Documents/GitHub/Launch-DAQ/Libraries/XMCLib/inc\xmc_uart.h **** * UART configuration events. The enums can be used for configuring events using the CCR register.
 156:C:/Users/Will/Documents/GitHub/Launch-DAQ/Libraries/XMCLib/inc\xmc_uart.h **** */
 157:C:/Users/Will/Documents/GitHub/Launch-DAQ/Libraries/XMCLib/inc\xmc_uart.h **** typedef enum XMC_CH_UART_EVENT
 158:C:/Users/Will/Documents/GitHub/Launch-DAQ/Libraries/XMCLib/inc\xmc_uart.h **** {
 159:C:/Users/Will/Documents/GitHub/Launch-DAQ/Libraries/XMCLib/inc\xmc_uart.h ****   XMC_UART_CH_EVENT_RECEIVE_START       = USIC_CH_CCR_RSIEN_Msk,  /**< Receive start event */
 160:C:/Users/Will/Documents/GitHub/Launch-DAQ/Libraries/XMCLib/inc\xmc_uart.h ****   XMC_UART_CH_EVENT_DATA_LOST           = USIC_CH_CCR_DLIEN_Msk,  /**< Data lost event */
 161:C:/Users/Will/Documents/GitHub/Launch-DAQ/Libraries/XMCLib/inc\xmc_uart.h ****   XMC_UART_CH_EVENT_TRANSMIT_SHIFT      = USIC_CH_CCR_TSIEN_Msk,  /**< Transmit shift event */
 162:C:/Users/Will/Documents/GitHub/Launch-DAQ/Libraries/XMCLib/inc\xmc_uart.h ****   XMC_UART_CH_EVENT_TRANSMIT_BUFFER     = USIC_CH_CCR_TBIEN_Msk,  /**< Transmit buffer event */
 163:C:/Users/Will/Documents/GitHub/Launch-DAQ/Libraries/XMCLib/inc\xmc_uart.h ****   XMC_UART_CH_EVENT_STANDARD_RECEIVE    = USIC_CH_CCR_RIEN_Msk,   /**< Receive event */
 164:C:/Users/Will/Documents/GitHub/Launch-DAQ/Libraries/XMCLib/inc\xmc_uart.h ****   XMC_UART_CH_EVENT_ALTERNATIVE_RECEIVE = USIC_CH_CCR_AIEN_Msk,   /**< Alternate receive event */
 165:C:/Users/Will/Documents/GitHub/Launch-DAQ/Libraries/XMCLib/inc\xmc_uart.h ****   XMC_UART_CH_EVENT_BAUD_RATE_GENERATOR = USIC_CH_CCR_BRGIEN_Msk, /**< Baudrate generator event */
 166:C:/Users/Will/Documents/GitHub/Launch-DAQ/Libraries/XMCLib/inc\xmc_uart.h ****   
 167:C:/Users/Will/Documents/GitHub/Launch-DAQ/Libraries/XMCLib/inc\xmc_uart.h ****   XMC_UART_CH_EVENT_SYNCHRONIZATION_BREAK = USIC_CH_PCR_ASCMode_SBIEN_Msk, /**< Event synchronizati
 168:C:/Users/Will/Documents/GitHub/Launch-DAQ/Libraries/XMCLib/inc\xmc_uart.h ****   XMC_UART_CH_EVENT_COLLISION = USIC_CH_PCR_ASCMode_CDEN_Msk,              /**< Event collision */
 169:C:/Users/Will/Documents/GitHub/Launch-DAQ/Libraries/XMCLib/inc\xmc_uart.h ****   XMC_UART_CH_EVENT_RECEIVER_NOISE = USIC_CH_PCR_ASCMode_RNIEN_Msk,        /**< Event receiver nois
 170:C:/Users/Will/Documents/GitHub/Launch-DAQ/Libraries/XMCLib/inc\xmc_uart.h ****   XMC_UART_CH_EVENT_FORMAT_ERROR = USIC_CH_PCR_ASCMode_FEIEN_Msk,          /**< Event format error 
 171:C:/Users/Will/Documents/GitHub/Launch-DAQ/Libraries/XMCLib/inc\xmc_uart.h ****   XMC_UART_CH_EVENT_FRAME_FINISHED = USIC_CH_PCR_ASCMode_FFIEN_Msk         /**< Event frame finishe
 172:C:/Users/Will/Documents/GitHub/Launch-DAQ/Libraries/XMCLib/inc\xmc_uart.h **** } XMC_UART_CH_EVENT_t;
 173:C:/Users/Will/Documents/GitHub/Launch-DAQ/Libraries/XMCLib/inc\xmc_uart.h **** 
 174:C:/Users/Will/Documents/GitHub/Launch-DAQ/Libraries/XMCLib/inc\xmc_uart.h **** /**
 175:C:/Users/Will/Documents/GitHub/Launch-DAQ/Libraries/XMCLib/inc\xmc_uart.h ****  * UART Input sampling frequency options
 176:C:/Users/Will/Documents/GitHub/Launch-DAQ/Libraries/XMCLib/inc\xmc_uart.h ****  */
 177:C:/Users/Will/Documents/GitHub/Launch-DAQ/Libraries/XMCLib/inc\xmc_uart.h **** typedef enum XMC_UART_CH_INPUT_SAMPLING_FREQ
 178:C:/Users/Will/Documents/GitHub/Launch-DAQ/Libraries/XMCLib/inc\xmc_uart.h **** {
 179:C:/Users/Will/Documents/GitHub/Launch-DAQ/Libraries/XMCLib/inc\xmc_uart.h ****   XMC_UART_CH_INPUT_SAMPLING_FREQ_FPERIPH            = XMC_USIC_CH_INPUT_SAMPLING_FREQ_FPERIPH,    
 180:C:/Users/Will/Documents/GitHub/Launch-DAQ/Libraries/XMCLib/inc\xmc_uart.h ****   XMC_UART_CH_INPUT_SAMPLING_FREQ_FRACTIONAL_DIVIDER = XMC_USIC_CH_INPUT_SAMPLING_FREQ_FRACTIONAL_D
 181:C:/Users/Will/Documents/GitHub/Launch-DAQ/Libraries/XMCLib/inc\xmc_uart.h **** } XMC_UART_CH_INPUT_SAMPLING_FREQ_t;
 182:C:/Users/Will/Documents/GitHub/Launch-DAQ/Libraries/XMCLib/inc\xmc_uart.h **** 
 183:C:/Users/Will/Documents/GitHub/Launch-DAQ/Libraries/XMCLib/inc\xmc_uart.h **** /**
 184:C:/Users/Will/Documents/GitHub/Launch-DAQ/Libraries/XMCLib/inc\xmc_uart.h ****  * UART input stages
 185:C:/Users/Will/Documents/GitHub/Launch-DAQ/Libraries/XMCLib/inc\xmc_uart.h ****  */
 186:C:/Users/Will/Documents/GitHub/Launch-DAQ/Libraries/XMCLib/inc\xmc_uart.h **** typedef enum XMC_UART_CH_INPUT
 187:C:/Users/Will/Documents/GitHub/Launch-DAQ/Libraries/XMCLib/inc\xmc_uart.h **** {
 188:C:/Users/Will/Documents/GitHub/Launch-DAQ/Libraries/XMCLib/inc\xmc_uart.h ****   XMC_UART_CH_INPUT_RXD = 0UL   /**< UART input stage DX0*/
 189:C:/Users/Will/Documents/GitHub/Launch-DAQ/Libraries/XMCLib/inc\xmc_uart.h **** #if UC_FAMILY == XMC1
 190:C:/Users/Will/Documents/GitHub/Launch-DAQ/Libraries/XMCLib/inc\xmc_uart.h ****   ,
 191:C:/Users/Will/Documents/GitHub/Launch-DAQ/Libraries/XMCLib/inc\xmc_uart.h ****   XMC_UART_CH_INPUT_RXD1 = 3UL, /**< UART input stage DX3*/
 192:C:/Users/Will/Documents/GitHub/Launch-DAQ/Libraries/XMCLib/inc\xmc_uart.h ****   XMC_UART_CH_INPUT_RXD2 = 5UL  /**< UART input stage DX5*/
 193:C:/Users/Will/Documents/GitHub/Launch-DAQ/Libraries/XMCLib/inc\xmc_uart.h **** #endif
 194:C:/Users/Will/Documents/GitHub/Launch-DAQ/Libraries/XMCLib/inc\xmc_uart.h **** } XMC_UART_CH_INPUT_t;
 195:C:/Users/Will/Documents/GitHub/Launch-DAQ/Libraries/XMCLib/inc\xmc_uart.h **** 
 196:C:/Users/Will/Documents/GitHub/Launch-DAQ/Libraries/XMCLib/inc\xmc_uart.h **** 
 197:C:/Users/Will/Documents/GitHub/Launch-DAQ/Libraries/XMCLib/inc\xmc_uart.h **** /**
 198:C:/Users/Will/Documents/GitHub/Launch-DAQ/Libraries/XMCLib/inc\xmc_uart.h ****  * UART channel interrupt node pointers
 199:C:/Users/Will/Documents/GitHub/Launch-DAQ/Libraries/XMCLib/inc\xmc_uart.h ****  */
 200:C:/Users/Will/Documents/GitHub/Launch-DAQ/Libraries/XMCLib/inc\xmc_uart.h **** typedef enum XMC_UART_CH_INTERRUPT_NODE_POINTER
 201:C:/Users/Will/Documents/GitHub/Launch-DAQ/Libraries/XMCLib/inc\xmc_uart.h **** {
 202:C:/Users/Will/Documents/GitHub/Launch-DAQ/Libraries/XMCLib/inc\xmc_uart.h ****   XMC_UART_CH_INTERRUPT_NODE_POINTER_TRANSMIT_SHIFT      = XMC_USIC_CH_INTERRUPT_NODE_POINTER_TRANS
 203:C:/Users/Will/Documents/GitHub/Launch-DAQ/Libraries/XMCLib/inc\xmc_uart.h ****   XMC_UART_CH_INTERRUPT_NODE_POINTER_TRANSMIT_BUFFER     = XMC_USIC_CH_INTERRUPT_NODE_POINTER_TRANS
 204:C:/Users/Will/Documents/GitHub/Launch-DAQ/Libraries/XMCLib/inc\xmc_uart.h ****   XMC_UART_CH_INTERRUPT_NODE_POINTER_RECEIVE             = XMC_USIC_CH_INTERRUPT_NODE_POINTER_RECEI
 205:C:/Users/Will/Documents/GitHub/Launch-DAQ/Libraries/XMCLib/inc\xmc_uart.h ****   XMC_UART_CH_INTERRUPT_NODE_POINTER_ALTERNATE_RECEIVE   = XMC_USIC_CH_INTERRUPT_NODE_POINTER_ALTER
 206:C:/Users/Will/Documents/GitHub/Launch-DAQ/Libraries/XMCLib/inc\xmc_uart.h ****   XMC_UART_CH_INTERRUPT_NODE_POINTER_PROTOCOL            = XMC_USIC_CH_INTERRUPT_NODE_POINTER_PROTO
 207:C:/Users/Will/Documents/GitHub/Launch-DAQ/Libraries/XMCLib/inc\xmc_uart.h **** } XMC_UART_CH_INTERRUPT_NODE_POINTER_t;
 208:C:/Users/Will/Documents/GitHub/Launch-DAQ/Libraries/XMCLib/inc\xmc_uart.h **** 
 209:C:/Users/Will/Documents/GitHub/Launch-DAQ/Libraries/XMCLib/inc\xmc_uart.h **** /**************************************************************************************************
 210:C:/Users/Will/Documents/GitHub/Launch-DAQ/Libraries/XMCLib/inc\xmc_uart.h ****  * DATA STRUCTURES
 211:C:/Users/Will/Documents/GitHub/Launch-DAQ/Libraries/XMCLib/inc\xmc_uart.h ****  **************************************************************************************************
 212:C:/Users/Will/Documents/GitHub/Launch-DAQ/Libraries/XMCLib/inc\xmc_uart.h **** 
 213:C:/Users/Will/Documents/GitHub/Launch-DAQ/Libraries/XMCLib/inc\xmc_uart.h **** /**
 214:C:/Users/Will/Documents/GitHub/Launch-DAQ/Libraries/XMCLib/inc\xmc_uart.h ****  * UART initialization structure
 215:C:/Users/Will/Documents/GitHub/Launch-DAQ/Libraries/XMCLib/inc\xmc_uart.h **** */
 216:C:/Users/Will/Documents/GitHub/Launch-DAQ/Libraries/XMCLib/inc\xmc_uart.h **** typedef struct XMC_UART_CH_CONFIG
 217:C:/Users/Will/Documents/GitHub/Launch-DAQ/Libraries/XMCLib/inc\xmc_uart.h **** {
 218:C:/Users/Will/Documents/GitHub/Launch-DAQ/Libraries/XMCLib/inc\xmc_uart.h ****   uint32_t baudrate;                         /**< Desired baudrate. \b Range: minimum= 100, maximum
 219:C:/Users/Will/Documents/GitHub/Launch-DAQ/Libraries/XMCLib/inc\xmc_uart.h ****   uint8_t data_bits;                         /**< Number of bits for the data field. Value configur
 220:C:/Users/Will/Documents/GitHub/Launch-DAQ/Libraries/XMCLib/inc\xmc_uart.h ****                                                   \b Range: minimum= 1, maximum= 16*/
 221:C:/Users/Will/Documents/GitHub/Launch-DAQ/Libraries/XMCLib/inc\xmc_uart.h ****   uint8_t frame_length;                      /**< Indicates nmber of bits in a frame. Configured as
 222:C:/Users/Will/Documents/GitHub/Launch-DAQ/Libraries/XMCLib/inc\xmc_uart.h ****                                                   \b Range: minimum= 1, maximum= 63*/
 223:C:/Users/Will/Documents/GitHub/Launch-DAQ/Libraries/XMCLib/inc\xmc_uart.h ****   uint8_t stop_bits;                         /**< Number of stop bits. \b Range: minimum= 1, maximu
 224:C:/Users/Will/Documents/GitHub/Launch-DAQ/Libraries/XMCLib/inc\xmc_uart.h ****   uint8_t oversampling;						           /**< Number of samples for a symbol(DCTQ).\b Range: minimum
 225:C:/Users/Will/Documents/GitHub/Launch-DAQ/Libraries/XMCLib/inc\xmc_uart.h ****   XMC_USIC_CH_PARITY_MODE_t parity_mode;     /**< Parity mode. \b Range: @ref XMC_USIC_CH_PARITY_MO
 226:C:/Users/Will/Documents/GitHub/Launch-DAQ/Libraries/XMCLib/inc\xmc_uart.h ****                                                   @ref XMC_USIC_CH_PARITY_MODE_ODD*/
 227:C:/Users/Will/Documents/GitHub/Launch-DAQ/Libraries/XMCLib/inc\xmc_uart.h **** } XMC_UART_CH_CONFIG_t;
 228:C:/Users/Will/Documents/GitHub/Launch-DAQ/Libraries/XMCLib/inc\xmc_uart.h **** 
 229:C:/Users/Will/Documents/GitHub/Launch-DAQ/Libraries/XMCLib/inc\xmc_uart.h **** /**************************************************************************************************
 230:C:/Users/Will/Documents/GitHub/Launch-DAQ/Libraries/XMCLib/inc\xmc_uart.h ****  * API PROTOTYPES
 231:C:/Users/Will/Documents/GitHub/Launch-DAQ/Libraries/XMCLib/inc\xmc_uart.h ****  **************************************************************************************************
 232:C:/Users/Will/Documents/GitHub/Launch-DAQ/Libraries/XMCLib/inc\xmc_uart.h **** 
 233:C:/Users/Will/Documents/GitHub/Launch-DAQ/Libraries/XMCLib/inc\xmc_uart.h **** #ifdef __cplusplus
 234:C:/Users/Will/Documents/GitHub/Launch-DAQ/Libraries/XMCLib/inc\xmc_uart.h **** extern "C" {
 235:C:/Users/Will/Documents/GitHub/Launch-DAQ/Libraries/XMCLib/inc\xmc_uart.h **** #endif
 236:C:/Users/Will/Documents/GitHub/Launch-DAQ/Libraries/XMCLib/inc\xmc_uart.h **** 
 237:C:/Users/Will/Documents/GitHub/Launch-DAQ/Libraries/XMCLib/inc\xmc_uart.h **** /**
 238:C:/Users/Will/Documents/GitHub/Launch-DAQ/Libraries/XMCLib/inc\xmc_uart.h ****  * @param channel Constant pointer to USIC channel handle of type @ref XMC_USIC_CH_t \n
 239:C:/Users/Will/Documents/GitHub/Launch-DAQ/Libraries/XMCLib/inc\xmc_uart.h ****  * 				  \b Range: @ref XMC_UART0_CH0, XMC_UART0_CH1,XMC_UART1_CH0, XMC_UART1_CH1,XMC_UART2_CH0, XM
 240:C:/Users/Will/Documents/GitHub/Launch-DAQ/Libraries/XMCLib/inc\xmc_uart.h ****  * @param config Constant pointer to UART configuration structure of type @ref XMC_UART_CH_CONFIG_t
 241:C:/Users/Will/Documents/GitHub/Launch-DAQ/Libraries/XMCLib/inc\xmc_uart.h ****  * @return XMC_UART_CH_STATUS_t Status of initializing the USIC channel for UART protocol.\n
 242:C:/Users/Will/Documents/GitHub/Launch-DAQ/Libraries/XMCLib/inc\xmc_uart.h ****  *          \b Range: @ref XMC_UART_CH_STATUS_OK if initialization is successful.\n
 243:C:/Users/Will/Documents/GitHub/Launch-DAQ/Libraries/XMCLib/inc\xmc_uart.h ****  *                    @ref XMC_UART_CH_STATUS_ERROR if configuration of baudrate failed.
 244:C:/Users/Will/Documents/GitHub/Launch-DAQ/Libraries/XMCLib/inc\xmc_uart.h ****  *
 245:C:/Users/Will/Documents/GitHub/Launch-DAQ/Libraries/XMCLib/inc\xmc_uart.h ****  * \par<b>Description</b><br>
 246:C:/Users/Will/Documents/GitHub/Launch-DAQ/Libraries/XMCLib/inc\xmc_uart.h ****  * Initializes the USIC channel for UART protocol.\n\n
 247:C:/Users/Will/Documents/GitHub/Launch-DAQ/Libraries/XMCLib/inc\xmc_uart.h ****  * During the initialization, USIC channel is enabled, baudrate is configured with the defined over
 248:C:/Users/Will/Documents/GitHub/Launch-DAQ/Libraries/XMCLib/inc\xmc_uart.h ****  * in the intialization structure. If the oversampling value is set to 0 in the structure, the defa
 249:C:/Users/Will/Documents/GitHub/Launch-DAQ/Libraries/XMCLib/inc\xmc_uart.h ****  * is considered. Sampling point for each symbol is configured at the half of sampling period. Symb
 250:C:/Users/Will/Documents/GitHub/Launch-DAQ/Libraries/XMCLib/inc\xmc_uart.h ****  * majority decision among 3 samples. 
 251:C:/Users/Will/Documents/GitHub/Launch-DAQ/Libraries/XMCLib/inc\xmc_uart.h ****  * Word length is configured with the number of data bits. If the value of \a frame_length is 0, th
 252:C:/Users/Will/Documents/GitHub/Launch-DAQ/Libraries/XMCLib/inc\xmc_uart.h ****  * is set to the same value as word length. If \a frame_length is greater than 0, it is set as the 
 253:C:/Users/Will/Documents/GitHub/Launch-DAQ/Libraries/XMCLib/inc\xmc_uart.h ****  * Parity mode is set to the value configured for \a parity_mode.
 254:C:/Users/Will/Documents/GitHub/Launch-DAQ/Libraries/XMCLib/inc\xmc_uart.h ****  * The USIC channel should be set to UART mode by calling the XMC_UART_CH_Start() API after the ini
 255:C:/Users/Will/Documents/GitHub/Launch-DAQ/Libraries/XMCLib/inc\xmc_uart.h ****  *
 256:C:/Users/Will/Documents/GitHub/Launch-DAQ/Libraries/XMCLib/inc\xmc_uart.h ****  * \par<b>Related APIs:</b><BR>
 257:C:/Users/Will/Documents/GitHub/Launch-DAQ/Libraries/XMCLib/inc\xmc_uart.h ****  * XMC_UART_CH_Start(), XMC_UART_CH_Stop(), XMC_UART_CH_Transmit()\n\n\n
 258:C:/Users/Will/Documents/GitHub/Launch-DAQ/Libraries/XMCLib/inc\xmc_uart.h ****  */
 259:C:/Users/Will/Documents/GitHub/Launch-DAQ/Libraries/XMCLib/inc\xmc_uart.h **** void XMC_UART_CH_Init(XMC_USIC_CH_t *const channel, const XMC_UART_CH_CONFIG_t *const config);
 260:C:/Users/Will/Documents/GitHub/Launch-DAQ/Libraries/XMCLib/inc\xmc_uart.h **** 
 261:C:/Users/Will/Documents/GitHub/Launch-DAQ/Libraries/XMCLib/inc\xmc_uart.h **** /**
 262:C:/Users/Will/Documents/GitHub/Launch-DAQ/Libraries/XMCLib/inc\xmc_uart.h ****  * @param channel Constant pointer to USIC channel handle of type @ref XMC_USIC_CH_t \n
 263:C:/Users/Will/Documents/GitHub/Launch-DAQ/Libraries/XMCLib/inc\xmc_uart.h ****  * 				  \b Range: @ref XMC_UART0_CH0, @ref XMC_UART0_CH1,@ref XMC_UART1_CH0,@ref XMC_UART1_CH1,@re
 264:C:/Users/Will/Documents/GitHub/Launch-DAQ/Libraries/XMCLib/inc\xmc_uart.h ****  * @return None
 265:C:/Users/Will/Documents/GitHub/Launch-DAQ/Libraries/XMCLib/inc\xmc_uart.h ****  *
 266:C:/Users/Will/Documents/GitHub/Launch-DAQ/Libraries/XMCLib/inc\xmc_uart.h ****  * \par<b>Description</b><br>
 267:C:/Users/Will/Documents/GitHub/Launch-DAQ/Libraries/XMCLib/inc\xmc_uart.h ****  * Sets the USIC channel operation mode to UART mode.\n\n
 268:C:/Users/Will/Documents/GitHub/Launch-DAQ/Libraries/XMCLib/inc\xmc_uart.h ****  * CCR register bitfield \a Mode is set to 2(UART mode). This API should be called after configurin
 269:C:/Users/Will/Documents/GitHub/Launch-DAQ/Libraries/XMCLib/inc\xmc_uart.h ****  * the USIC channel. Transmission and reception can happen only when the UART mode is set. 
 270:C:/Users/Will/Documents/GitHub/Launch-DAQ/Libraries/XMCLib/inc\xmc_uart.h ****  * This is an inline function.
 271:C:/Users/Will/Documents/GitHub/Launch-DAQ/Libraries/XMCLib/inc\xmc_uart.h ****  *
 272:C:/Users/Will/Documents/GitHub/Launch-DAQ/Libraries/XMCLib/inc\xmc_uart.h ****  * \par<b>Related APIs:</b><BR>
 273:C:/Users/Will/Documents/GitHub/Launch-DAQ/Libraries/XMCLib/inc\xmc_uart.h ****  * XMC_UART_CH_Stop(), XMC_UART_CH_Transmit()\n\n\n
 274:C:/Users/Will/Documents/GitHub/Launch-DAQ/Libraries/XMCLib/inc\xmc_uart.h ****  */
 275:C:/Users/Will/Documents/GitHub/Launch-DAQ/Libraries/XMCLib/inc\xmc_uart.h **** __STATIC_INLINE void XMC_UART_CH_Start(XMC_USIC_CH_t *const channel)
 276:C:/Users/Will/Documents/GitHub/Launch-DAQ/Libraries/XMCLib/inc\xmc_uart.h **** {
 277:C:/Users/Will/Documents/GitHub/Launch-DAQ/Libraries/XMCLib/inc\xmc_uart.h ****   channel->CCR = (uint32_t)(((channel->CCR) & (~USIC_CH_CCR_MODE_Msk)) | (uint32_t)XMC_USIC_CH_OPER
 278:C:/Users/Will/Documents/GitHub/Launch-DAQ/Libraries/XMCLib/inc\xmc_uart.h **** }
 279:C:/Users/Will/Documents/GitHub/Launch-DAQ/Libraries/XMCLib/inc\xmc_uart.h **** 
 280:C:/Users/Will/Documents/GitHub/Launch-DAQ/Libraries/XMCLib/inc\xmc_uart.h **** /**
 281:C:/Users/Will/Documents/GitHub/Launch-DAQ/Libraries/XMCLib/inc\xmc_uart.h ****  * @param channel Constant pointer to USIC channel handle of type @ref XMC_USIC_CH_t \n
 282:C:/Users/Will/Documents/GitHub/Launch-DAQ/Libraries/XMCLib/inc\xmc_uart.h ****  * 				  \b Range: @ref XMC_UART0_CH0, @ref XMC_UART0_CH1,@ref XMC_UART1_CH0,@ref XMC_UART1_CH1,@re
 283:C:/Users/Will/Documents/GitHub/Launch-DAQ/Libraries/XMCLib/inc\xmc_uart.h ****  * @return XMC_UART_CH_STATUS_t Status to indicate if the communication channel is stopped successf
 284:C:/Users/Will/Documents/GitHub/Launch-DAQ/Libraries/XMCLib/inc\xmc_uart.h ****  *                              @ref XMC_UART_CH_STATUS_OK if the communication channel is stopped.
 285:C:/Users/Will/Documents/GitHub/Launch-DAQ/Libraries/XMCLib/inc\xmc_uart.h ****  *                              @ref XMC_UART_CH_STATUS_BUSY if the communication channel is busy.
 286:C:/Users/Will/Documents/GitHub/Launch-DAQ/Libraries/XMCLib/inc\xmc_uart.h ****  *
 287:C:/Users/Will/Documents/GitHub/Launch-DAQ/Libraries/XMCLib/inc\xmc_uart.h ****  * \par<b>Description</b><br>
 288:C:/Users/Will/Documents/GitHub/Launch-DAQ/Libraries/XMCLib/inc\xmc_uart.h ****  * Stops the UART communication.\n\n
 289:C:/Users/Will/Documents/GitHub/Launch-DAQ/Libraries/XMCLib/inc\xmc_uart.h ****  * CCR register bitfield \a Mode is reset. This disables the communication.
 290:C:/Users/Will/Documents/GitHub/Launch-DAQ/Libraries/XMCLib/inc\xmc_uart.h ****  * Before starting the communication again, the channel has to be reconfigured.
 291:C:/Users/Will/Documents/GitHub/Launch-DAQ/Libraries/XMCLib/inc\xmc_uart.h ****  *
 292:C:/Users/Will/Documents/GitHub/Launch-DAQ/Libraries/XMCLib/inc\xmc_uart.h ****  * \par<b>Related APIs:</b><BR>
 293:C:/Users/Will/Documents/GitHub/Launch-DAQ/Libraries/XMCLib/inc\xmc_uart.h ****  * XMC_UART_CH_Init() \n\n\n
 294:C:/Users/Will/Documents/GitHub/Launch-DAQ/Libraries/XMCLib/inc\xmc_uart.h ****  */
 295:C:/Users/Will/Documents/GitHub/Launch-DAQ/Libraries/XMCLib/inc\xmc_uart.h **** XMC_UART_CH_STATUS_t XMC_UART_CH_Stop(XMC_USIC_CH_t *const channel);
 296:C:/Users/Will/Documents/GitHub/Launch-DAQ/Libraries/XMCLib/inc\xmc_uart.h **** 
 297:C:/Users/Will/Documents/GitHub/Launch-DAQ/Libraries/XMCLib/inc\xmc_uart.h **** /**
 298:C:/Users/Will/Documents/GitHub/Launch-DAQ/Libraries/XMCLib/inc\xmc_uart.h ****  * @param channel Constant pointer to USIC channel handle of type @ref XMC_USIC_CH_t \n
 299:C:/Users/Will/Documents/GitHub/Launch-DAQ/Libraries/XMCLib/inc\xmc_uart.h ****  * 				   \b Range: @ref XMC_UART0_CH0, XMC_UART0_CH1 ,XMC_UART1_CH0, XMC_UART1_CH1, XMC_UART2_CH0,
 300:C:/Users/Will/Documents/GitHub/Launch-DAQ/Libraries/XMCLib/inc\xmc_uart.h ****  * @param rate Desired baudrate. \n
 301:C:/Users/Will/Documents/GitHub/Launch-DAQ/Libraries/XMCLib/inc\xmc_uart.h ****  *           \b Range: minimum value = 100, maximum value depends on the peripheral clock frequency
 302:C:/Users/Will/Documents/GitHub/Launch-DAQ/Libraries/XMCLib/inc\xmc_uart.h ****  * 				   and \a oversampling. Maximum baudrate can be derived using the formula: (fperiph * 1023)/
 303:C:/Users/Will/Documents/GitHub/Launch-DAQ/Libraries/XMCLib/inc\xmc_uart.h ****  * @param  oversampling Required oversampling. The value indicates the number of time quanta for on
 304:C:/Users/Will/Documents/GitHub/Launch-DAQ/Libraries/XMCLib/inc\xmc_uart.h ****  * 					 This can be related to the number of samples for each logic state of the data signal.\n
 305:C:/Users/Will/Documents/GitHub/Launch-DAQ/Libraries/XMCLib/inc\xmc_uart.h ****  * 					 \b Range: 4 to 32. Value should be chosen based on the protocol used.
 306:C:/Users/Will/Documents/GitHub/Launch-DAQ/Libraries/XMCLib/inc\xmc_uart.h ****  * @return XMC_UART_CH_STATUS_t Status indicating the baudrate configuration.\n
 307:C:/Users/Will/Documents/GitHub/Launch-DAQ/Libraries/XMCLib/inc\xmc_uart.h ****  * 			     \b Range: @ref XMC_USIC_CH_STATUS_OK if baudrate is successfully configured,
 308:C:/Users/Will/Documents/GitHub/Launch-DAQ/Libraries/XMCLib/inc\xmc_uart.h ****  * 					 @ref XMC_USIC_CH_STATUS_ERROR if desired baudrate or oversampling is invalid.
 309:C:/Users/Will/Documents/GitHub/Launch-DAQ/Libraries/XMCLib/inc\xmc_uart.h ****  *
 310:C:/Users/Will/Documents/GitHub/Launch-DAQ/Libraries/XMCLib/inc\xmc_uart.h ****  * \par<b>Description:</b><br>
 311:C:/Users/Will/Documents/GitHub/Launch-DAQ/Libraries/XMCLib/inc\xmc_uart.h ****  * Sets the bus speed in bits per second.\n\n
 312:C:/Users/Will/Documents/GitHub/Launch-DAQ/Libraries/XMCLib/inc\xmc_uart.h ****  * Derives the values of \a STEP and PDIV to arrive at the optimum realistic speed possible.
 313:C:/Users/Will/Documents/GitHub/Launch-DAQ/Libraries/XMCLib/inc\xmc_uart.h ****  * \a oversampling is the number of samples to be taken for each symbol of UART protocol.
 314:C:/Users/Will/Documents/GitHub/Launch-DAQ/Libraries/XMCLib/inc\xmc_uart.h ****  * Default \a oversampling of 16 is considered if the input \a oversampling is less than 4. It is r
 315:C:/Users/Will/Documents/GitHub/Launch-DAQ/Libraries/XMCLib/inc\xmc_uart.h ****  * a minimum oversampling of 4 for UART.
 316:C:/Users/Will/Documents/GitHub/Launch-DAQ/Libraries/XMCLib/inc\xmc_uart.h ****  *
 317:C:/Users/Will/Documents/GitHub/Launch-DAQ/Libraries/XMCLib/inc\xmc_uart.h ****  * \par<b>Related APIs:</b><BR>
 318:C:/Users/Will/Documents/GitHub/Launch-DAQ/Libraries/XMCLib/inc\xmc_uart.h ****  * XMC_UART_CH_Init(), XMC_UART_CH_Stop()
 319:C:/Users/Will/Documents/GitHub/Launch-DAQ/Libraries/XMCLib/inc\xmc_uart.h ****  */
 320:C:/Users/Will/Documents/GitHub/Launch-DAQ/Libraries/XMCLib/inc\xmc_uart.h **** XMC_UART_CH_STATUS_t XMC_UART_CH_SetBaudrate(XMC_USIC_CH_t *const channel, uint32_t rate, uint32_t 
 321:C:/Users/Will/Documents/GitHub/Launch-DAQ/Libraries/XMCLib/inc\xmc_uart.h **** 
 322:C:/Users/Will/Documents/GitHub/Launch-DAQ/Libraries/XMCLib/inc\xmc_uart.h **** /**
 323:C:/Users/Will/Documents/GitHub/Launch-DAQ/Libraries/XMCLib/inc\xmc_uart.h ****  * @param channel Constant pointer to USIC channel handle of type @ref XMC_USIC_CH_t \n
 324:C:/Users/Will/Documents/GitHub/Launch-DAQ/Libraries/XMCLib/inc\xmc_uart.h ****  * 				  \b Range: @ref XMC_UART0_CH0, @ref XMC_UART0_CH1,@ref XMC_UART1_CH0,@ref XMC_UART1_CH1,@re
 325:C:/Users/Will/Documents/GitHub/Launch-DAQ/Libraries/XMCLib/inc\xmc_uart.h ****  * @param  data Data to be transmitted. \n 
 326:C:/Users/Will/Documents/GitHub/Launch-DAQ/Libraries/XMCLib/inc\xmc_uart.h ****  *          \b Range: 16 bit unsigned data within the range 0 to 65535. Actual size of
 327:C:/Users/Will/Documents/GitHub/Launch-DAQ/Libraries/XMCLib/inc\xmc_uart.h ****  *          data transmitted depends on the configured number of bits for the UART protocol in the 
 328:C:/Users/Will/Documents/GitHub/Launch-DAQ/Libraries/XMCLib/inc\xmc_uart.h ****  * @return None
 329:C:/Users/Will/Documents/GitHub/Launch-DAQ/Libraries/XMCLib/inc\xmc_uart.h ****  *
 330:C:/Users/Will/Documents/GitHub/Launch-DAQ/Libraries/XMCLib/inc\xmc_uart.h ****  * \par<b>Description</b><br>
 331:C:/Users/Will/Documents/GitHub/Launch-DAQ/Libraries/XMCLib/inc\xmc_uart.h ****  * Transmits data over serial communication channel using UART protocol.\n\n
 332:C:/Users/Will/Documents/GitHub/Launch-DAQ/Libraries/XMCLib/inc\xmc_uart.h ****  * Based on the channel configuration, data is either put to the transmit FIFO or to TBUF register.
 333:C:/Users/Will/Documents/GitHub/Launch-DAQ/Libraries/XMCLib/inc\xmc_uart.h ****  * Before putting data to TBUF, the API waits for TBUF to finish shifting its contents to shift reg
 334:C:/Users/Will/Documents/GitHub/Launch-DAQ/Libraries/XMCLib/inc\xmc_uart.h ****  * So user can continuously execute the API without checking for TBUF busy status. Based on the num
 335:C:/Users/Will/Documents/GitHub/Launch-DAQ/Libraries/XMCLib/inc\xmc_uart.h ****  * data bits configured, the lower significant bits will be extracted for transmission.
 336:C:/Users/Will/Documents/GitHub/Launch-DAQ/Libraries/XMCLib/inc\xmc_uart.h ****  *
 337:C:/Users/Will/Documents/GitHub/Launch-DAQ/Libraries/XMCLib/inc\xmc_uart.h ****  * Note: When FIFO is not configured, the API waits for the TBUF to be available. 
 338:C:/Users/Will/Documents/GitHub/Launch-DAQ/Libraries/XMCLib/inc\xmc_uart.h ****  * This makes the execution a blocking call.
 339:C:/Users/Will/Documents/GitHub/Launch-DAQ/Libraries/XMCLib/inc\xmc_uart.h ****  *
 340:C:/Users/Will/Documents/GitHub/Launch-DAQ/Libraries/XMCLib/inc\xmc_uart.h ****  * \par<b>Related APIs:</b><BR>
 341:C:/Users/Will/Documents/GitHub/Launch-DAQ/Libraries/XMCLib/inc\xmc_uart.h ****  * XMC_UART_CH_GetReceivedData() \n\n\n
 342:C:/Users/Will/Documents/GitHub/Launch-DAQ/Libraries/XMCLib/inc\xmc_uart.h ****  */
 343:C:/Users/Will/Documents/GitHub/Launch-DAQ/Libraries/XMCLib/inc\xmc_uart.h **** void XMC_UART_CH_Transmit(XMC_USIC_CH_t *const channel, const uint16_t data);
 344:C:/Users/Will/Documents/GitHub/Launch-DAQ/Libraries/XMCLib/inc\xmc_uart.h **** 
 345:C:/Users/Will/Documents/GitHub/Launch-DAQ/Libraries/XMCLib/inc\xmc_uart.h **** /**
 346:C:/Users/Will/Documents/GitHub/Launch-DAQ/Libraries/XMCLib/inc\xmc_uart.h ****  * @param channel Constant pointer to USIC channel handle of type @ref XMC_USIC_CH_t \n
 347:C:/Users/Will/Documents/GitHub/Launch-DAQ/Libraries/XMCLib/inc\xmc_uart.h ****  * 				  \b Range: @ref XMC_UART0_CH0, @ref XMC_UART0_CH1,@ref XMC_UART1_CH0,@ref XMC_UART1_CH1,@re
 348:C:/Users/Will/Documents/GitHub/Launch-DAQ/Libraries/XMCLib/inc\xmc_uart.h ****  * @return uint16_t Received data over UART communication channel.
 349:C:/Users/Will/Documents/GitHub/Launch-DAQ/Libraries/XMCLib/inc\xmc_uart.h ****  * \par<b>Description</b><br>
 350:C:/Users/Will/Documents/GitHub/Launch-DAQ/Libraries/XMCLib/inc\xmc_uart.h ****  * Provides one word of data received over UART communication channel.\n\n
 351:C:/Users/Will/Documents/GitHub/Launch-DAQ/Libraries/XMCLib/inc\xmc_uart.h ****  * Based on the channel configuration, data is either read from the receive FIFO or RBUF register.
 352:C:/Users/Will/Documents/GitHub/Launch-DAQ/Libraries/XMCLib/inc\xmc_uart.h ****  * Before returning the value, there is no check for data validity. User should check the appropria
 353:C:/Users/Will/Documents/GitHub/Launch-DAQ/Libraries/XMCLib/inc\xmc_uart.h ****  * data receive flags(standard receive/alternative receive/FIFO standard receive/FIFO alternative r
 354:C:/Users/Will/Documents/GitHub/Launch-DAQ/Libraries/XMCLib/inc\xmc_uart.h ****  * before executing the API. Reading from an empty receive FIFO can generate a receive error event.
 355:C:/Users/Will/Documents/GitHub/Launch-DAQ/Libraries/XMCLib/inc\xmc_uart.h ****  *
 356:C:/Users/Will/Documents/GitHub/Launch-DAQ/Libraries/XMCLib/inc\xmc_uart.h ****  * \par<b>Related APIs:</b><BR>
 357:C:/Users/Will/Documents/GitHub/Launch-DAQ/Libraries/XMCLib/inc\xmc_uart.h ****  * XMC_UART_CH_GetStatusFlag(), XMC_UART_CH_Transmit() \n\n\n
 358:C:/Users/Will/Documents/GitHub/Launch-DAQ/Libraries/XMCLib/inc\xmc_uart.h ****  */
 359:C:/Users/Will/Documents/GitHub/Launch-DAQ/Libraries/XMCLib/inc\xmc_uart.h **** uint16_t XMC_UART_CH_GetReceivedData(XMC_USIC_CH_t *const channel);
 360:C:/Users/Will/Documents/GitHub/Launch-DAQ/Libraries/XMCLib/inc\xmc_uart.h **** 
 361:C:/Users/Will/Documents/GitHub/Launch-DAQ/Libraries/XMCLib/inc\xmc_uart.h **** /**
 362:C:/Users/Will/Documents/GitHub/Launch-DAQ/Libraries/XMCLib/inc\xmc_uart.h ****  * @param  channel Constant pointer to USIC channel handle of type @ref XMC_USIC_CH_t \n
 363:C:/Users/Will/Documents/GitHub/Launch-DAQ/Libraries/XMCLib/inc\xmc_uart.h ****  * 				  \b Range: @ref XMC_UART0_CH0, @ref XMC_UART0_CH1,@ref XMC_UART1_CH0,@ref XMC_UART1_CH1,@re
 364:C:/Users/Will/Documents/GitHub/Launch-DAQ/Libraries/XMCLib/inc\xmc_uart.h ****  * @param  word_length Data word length. \n
 365:C:/Users/Will/Documents/GitHub/Launch-DAQ/Libraries/XMCLib/inc\xmc_uart.h ****  *          \b Range: minimum= 1, maximum= 16.
 366:C:/Users/Will/Documents/GitHub/Launch-DAQ/Libraries/XMCLib/inc\xmc_uart.h ****  * @return None
 367:C:/Users/Will/Documents/GitHub/Launch-DAQ/Libraries/XMCLib/inc\xmc_uart.h ****  *
 368:C:/Users/Will/Documents/GitHub/Launch-DAQ/Libraries/XMCLib/inc\xmc_uart.h ****  * \par<b>Description</b><br>
 369:C:/Users/Will/Documents/GitHub/Launch-DAQ/Libraries/XMCLib/inc\xmc_uart.h ****  * Sets the data word length in number of bits.\n\n
 370:C:/Users/Will/Documents/GitHub/Launch-DAQ/Libraries/XMCLib/inc\xmc_uart.h ****  * Word length can range from 1 to 16. It indicates the number of data bits in a data word.
 371:C:/Users/Will/Documents/GitHub/Launch-DAQ/Libraries/XMCLib/inc\xmc_uart.h ****  * The value of \a word_length will be decremented by 1 before setting the value to \a SCTR registe
 372:C:/Users/Will/Documents/GitHub/Launch-DAQ/Libraries/XMCLib/inc\xmc_uart.h ****  * If the UART data bits is more than 16, then the frame length should be set to the actual number 
 373:C:/Users/Will/Documents/GitHub/Launch-DAQ/Libraries/XMCLib/inc\xmc_uart.h ****  * word length should be configured with the number of bits expected in each transaction. For examp
 374:C:/Users/Will/Documents/GitHub/Launch-DAQ/Libraries/XMCLib/inc\xmc_uart.h ****  * for UART communication is 20 bits, then the frame length should be set as 20. Word length can be
 375:C:/Users/Will/Documents/GitHub/Launch-DAQ/Libraries/XMCLib/inc\xmc_uart.h ****  * transmit and receive handling. If data is stored as 8bit array, then the word length can be set 
 376:C:/Users/Will/Documents/GitHub/Launch-DAQ/Libraries/XMCLib/inc\xmc_uart.h ****  * a full message of UART data should be transmitted/ received as 3 data words.
 377:C:/Users/Will/Documents/GitHub/Launch-DAQ/Libraries/XMCLib/inc\xmc_uart.h ****  *
 378:C:/Users/Will/Documents/GitHub/Launch-DAQ/Libraries/XMCLib/inc\xmc_uart.h ****  * \par<b>Related APIs:</b><BR>
 379:C:/Users/Will/Documents/GitHub/Launch-DAQ/Libraries/XMCLib/inc\xmc_uart.h ****  * XMC_UART_CH_SetFrameLength() \n\n\n
 380:C:/Users/Will/Documents/GitHub/Launch-DAQ/Libraries/XMCLib/inc\xmc_uart.h ****  */
 381:C:/Users/Will/Documents/GitHub/Launch-DAQ/Libraries/XMCLib/inc\xmc_uart.h **** __STATIC_INLINE void XMC_UART_CH_SetWordLength(XMC_USIC_CH_t *const channel, const uint8_t word_len
 382:C:/Users/Will/Documents/GitHub/Launch-DAQ/Libraries/XMCLib/inc\xmc_uart.h **** {
 383:C:/Users/Will/Documents/GitHub/Launch-DAQ/Libraries/XMCLib/inc\xmc_uart.h ****   XMC_USIC_CH_SetWordLength(channel, word_length);
 384:C:/Users/Will/Documents/GitHub/Launch-DAQ/Libraries/XMCLib/inc\xmc_uart.h **** }
 385:C:/Users/Will/Documents/GitHub/Launch-DAQ/Libraries/XMCLib/inc\xmc_uart.h **** 
 386:C:/Users/Will/Documents/GitHub/Launch-DAQ/Libraries/XMCLib/inc\xmc_uart.h **** /**
 387:C:/Users/Will/Documents/GitHub/Launch-DAQ/Libraries/XMCLib/inc\xmc_uart.h ****  * @param  channel Constant pointer to USIC channel handle of type @ref XMC_USIC_CH_t \n
 388:C:/Users/Will/Documents/GitHub/Launch-DAQ/Libraries/XMCLib/inc\xmc_uart.h ****  * 				  \b Range: @ref XMC_UART0_CH0, @ref XMC_UART0_CH1,@ref XMC_UART1_CH0,@ref XMC_UART1_CH1,@re
 389:C:/Users/Will/Documents/GitHub/Launch-DAQ/Libraries/XMCLib/inc\xmc_uart.h ****  * @param  frame_length Number of data bits in each UART frame. \n
 390:C:/Users/Will/Documents/GitHub/Launch-DAQ/Libraries/XMCLib/inc\xmc_uart.h ****  *          \b Range: minimum= 1, maximum= 64.
 391:C:/Users/Will/Documents/GitHub/Launch-DAQ/Libraries/XMCLib/inc\xmc_uart.h ****  * @return None
 392:C:/Users/Will/Documents/GitHub/Launch-DAQ/Libraries/XMCLib/inc\xmc_uart.h ****  *
 393:C:/Users/Will/Documents/GitHub/Launch-DAQ/Libraries/XMCLib/inc\xmc_uart.h ****  * \par<b>Description</b><br>
 394:C:/Users/Will/Documents/GitHub/Launch-DAQ/Libraries/XMCLib/inc\xmc_uart.h ****  * Sets the number of data bits for UART communication.\n\n
 395:C:/Users/Will/Documents/GitHub/Launch-DAQ/Libraries/XMCLib/inc\xmc_uart.h ****  * The frame length is configured by setting the input value to \a SCTR register.
 396:C:/Users/Will/Documents/GitHub/Launch-DAQ/Libraries/XMCLib/inc\xmc_uart.h ****  * The value of \a frame_length will be decremented by 1, before setting it to the register.
 397:C:/Users/Will/Documents/GitHub/Launch-DAQ/Libraries/XMCLib/inc\xmc_uart.h ****  * Frame length should not be set to 64 for UART communication.
 398:C:/Users/Will/Documents/GitHub/Launch-DAQ/Libraries/XMCLib/inc\xmc_uart.h ****  *
 399:C:/Users/Will/Documents/GitHub/Launch-DAQ/Libraries/XMCLib/inc\xmc_uart.h ****  * \par<b>Related APIs:</b><BR>
 400:C:/Users/Will/Documents/GitHub/Launch-DAQ/Libraries/XMCLib/inc\xmc_uart.h ****  * XMC_UART_CH_SetWordLength() \n\n\n
 401:C:/Users/Will/Documents/GitHub/Launch-DAQ/Libraries/XMCLib/inc\xmc_uart.h ****  */
 402:C:/Users/Will/Documents/GitHub/Launch-DAQ/Libraries/XMCLib/inc\xmc_uart.h **** __STATIC_INLINE void XMC_UART_CH_SetFrameLength(XMC_USIC_CH_t *const channel, const uint8_t frame_l
 403:C:/Users/Will/Documents/GitHub/Launch-DAQ/Libraries/XMCLib/inc\xmc_uart.h **** {
 404:C:/Users/Will/Documents/GitHub/Launch-DAQ/Libraries/XMCLib/inc\xmc_uart.h ****   XMC_USIC_CH_SetFrameLength(channel, frame_length);
 405:C:/Users/Will/Documents/GitHub/Launch-DAQ/Libraries/XMCLib/inc\xmc_uart.h **** }
 406:C:/Users/Will/Documents/GitHub/Launch-DAQ/Libraries/XMCLib/inc\xmc_uart.h **** 
 407:C:/Users/Will/Documents/GitHub/Launch-DAQ/Libraries/XMCLib/inc\xmc_uart.h **** /**
 408:C:/Users/Will/Documents/GitHub/Launch-DAQ/Libraries/XMCLib/inc\xmc_uart.h ****  * @param channel Constant pointer to USIC channel handle of type @ref XMC_USIC_CH_t \n
 409:C:/Users/Will/Documents/GitHub/Launch-DAQ/Libraries/XMCLib/inc\xmc_uart.h ****  * 				  \b Range: @ref XMC_UART0_CH0, @ref XMC_UART0_CH1,@ref XMC_UART1_CH0,@ref XMC_UART1_CH1,@re
 410:C:/Users/Will/Documents/GitHub/Launch-DAQ/Libraries/XMCLib/inc\xmc_uart.h ****  * @param  event Event bitmasks to enable. Use the type @ref XMC_UART_CH_EVENT_t for naming events.
 411:C:/Users/Will/Documents/GitHub/Launch-DAQ/Libraries/XMCLib/inc\xmc_uart.h ****  * 				  \b Range: @ref XMC_UART_CH_EVENT_RECEIVE_START, @ref XMC_UART_CH_EVENT_DATA_LOST,
 412:C:/Users/Will/Documents/GitHub/Launch-DAQ/Libraries/XMCLib/inc\xmc_uart.h ****  * 				  @ref XMC_UART_CH_EVENT_TRANSMIT_SHIFT, @ref XMC_UART_CH_EVENT_TRANSMIT_BUFFER,
 413:C:/Users/Will/Documents/GitHub/Launch-DAQ/Libraries/XMCLib/inc\xmc_uart.h ****  * 				  etc.
 414:C:/Users/Will/Documents/GitHub/Launch-DAQ/Libraries/XMCLib/inc\xmc_uart.h ****  * @return None
 415:C:/Users/Will/Documents/GitHub/Launch-DAQ/Libraries/XMCLib/inc\xmc_uart.h ****  *
 416:C:/Users/Will/Documents/GitHub/Launch-DAQ/Libraries/XMCLib/inc\xmc_uart.h ****  * \par<b>Description</b><br>
 417:C:/Users/Will/Documents/GitHub/Launch-DAQ/Libraries/XMCLib/inc\xmc_uart.h ****  * Enables interrupt events for UART communication.\n\n
 418:C:/Users/Will/Documents/GitHub/Launch-DAQ/Libraries/XMCLib/inc\xmc_uart.h ****  * Multiple events can be combined using the bitwise OR operation and configured in one function ca
 419:C:/Users/Will/Documents/GitHub/Launch-DAQ/Libraries/XMCLib/inc\xmc_uart.h ****  * @ref XMC_UART_CH_EVENT_t enumerates multiple event bitmasks. These enumerations can be used as i
 420:C:/Users/Will/Documents/GitHub/Launch-DAQ/Libraries/XMCLib/inc\xmc_uart.h ****  * Events are configured by setting bits in the CCR register.
 421:C:/Users/Will/Documents/GitHub/Launch-DAQ/Libraries/XMCLib/inc\xmc_uart.h ****  * \par<b>Related APIs:</b><BR>
 422:C:/Users/Will/Documents/GitHub/Launch-DAQ/Libraries/XMCLib/inc\xmc_uart.h ****  * XMC_UART_CH_DisableEvent(), XMC_UART_CH_SetInterruptNodePointer(), XMC_UART_CH_GetStatusFlag() \
 423:C:/Users/Will/Documents/GitHub/Launch-DAQ/Libraries/XMCLib/inc\xmc_uart.h ****  */
 424:C:/Users/Will/Documents/GitHub/Launch-DAQ/Libraries/XMCLib/inc\xmc_uart.h **** void XMC_UART_CH_EnableEvent(XMC_USIC_CH_t *const channel, const uint32_t event);
 425:C:/Users/Will/Documents/GitHub/Launch-DAQ/Libraries/XMCLib/inc\xmc_uart.h **** 
 426:C:/Users/Will/Documents/GitHub/Launch-DAQ/Libraries/XMCLib/inc\xmc_uart.h **** /**
 427:C:/Users/Will/Documents/GitHub/Launch-DAQ/Libraries/XMCLib/inc\xmc_uart.h ****  * @param channel Constant pointer to USIC channel handle of type @ref XMC_USIC_CH_t \n
 428:C:/Users/Will/Documents/GitHub/Launch-DAQ/Libraries/XMCLib/inc\xmc_uart.h ****  * 				  \b Range: @ref XMC_UART0_CH0, @ref XMC_UART0_CH1,@ref XMC_UART1_CH0,@ref XMC_UART1_CH1,@re
 429:C:/Users/Will/Documents/GitHub/Launch-DAQ/Libraries/XMCLib/inc\xmc_uart.h ****  * @param  event Bitmask of events to disable. Use the type @ref XMC_UART_CH_EVENT_t for naming eve
 430:C:/Users/Will/Documents/GitHub/Launch-DAQ/Libraries/XMCLib/inc\xmc_uart.h ****  * 				  \b Range: @ref XMC_UART_CH_EVENT_RECEIVE_START, @ref XMC_UART_CH_EVENT_DATA_LOST,
 431:C:/Users/Will/Documents/GitHub/Launch-DAQ/Libraries/XMCLib/inc\xmc_uart.h ****  * 				  @ref XMC_UART_CH_EVENT_TRANSMIT_SHIFT, @ref XMC_UART_CH_EVENT_TRANSMIT_BUFFER,
 432:C:/Users/Will/Documents/GitHub/Launch-DAQ/Libraries/XMCLib/inc\xmc_uart.h ****  * 				  etc.
 433:C:/Users/Will/Documents/GitHub/Launch-DAQ/Libraries/XMCLib/inc\xmc_uart.h ****  * @return None
 434:C:/Users/Will/Documents/GitHub/Launch-DAQ/Libraries/XMCLib/inc\xmc_uart.h ****  *
 435:C:/Users/Will/Documents/GitHub/Launch-DAQ/Libraries/XMCLib/inc\xmc_uart.h ****  * \par<b>Description</b><br>
 436:C:/Users/Will/Documents/GitHub/Launch-DAQ/Libraries/XMCLib/inc\xmc_uart.h ****  * Disables the interrupt events by clearing the bits in CCR register.\n\n
 437:C:/Users/Will/Documents/GitHub/Launch-DAQ/Libraries/XMCLib/inc\xmc_uart.h ****  * Multiple events can be combined using the bitwise OR operation and configured in one function ca
 438:C:/Users/Will/Documents/GitHub/Launch-DAQ/Libraries/XMCLib/inc\xmc_uart.h ****  * XMC_UART_CH_EVENT_FLAG_t enumerates multiple event bitmasks. These enumerations can be used as i
 439:C:/Users/Will/Documents/GitHub/Launch-DAQ/Libraries/XMCLib/inc\xmc_uart.h ****  *
 440:C:/Users/Will/Documents/GitHub/Launch-DAQ/Libraries/XMCLib/inc\xmc_uart.h ****  * \par<b>Related APIs:</b><BR>
 441:C:/Users/Will/Documents/GitHub/Launch-DAQ/Libraries/XMCLib/inc\xmc_uart.h ****  * XMC_UART_CH_ClearStatusFlag(), XMC_UART_CH_EnableEvent() \n\n\n
 442:C:/Users/Will/Documents/GitHub/Launch-DAQ/Libraries/XMCLib/inc\xmc_uart.h ****  */
 443:C:/Users/Will/Documents/GitHub/Launch-DAQ/Libraries/XMCLib/inc\xmc_uart.h **** void XMC_UART_CH_DisableEvent(XMC_USIC_CH_t *const channel, const uint32_t event);
 444:C:/Users/Will/Documents/GitHub/Launch-DAQ/Libraries/XMCLib/inc\xmc_uart.h **** 
 445:C:/Users/Will/Documents/GitHub/Launch-DAQ/Libraries/XMCLib/inc\xmc_uart.h **** /**
 446:C:/Users/Will/Documents/GitHub/Launch-DAQ/Libraries/XMCLib/inc\xmc_uart.h ****  * @param channel Constant pointer to USIC channel handle of type @ref XMC_USIC_CH_t \n
 447:C:/Users/Will/Documents/GitHub/Launch-DAQ/Libraries/XMCLib/inc\xmc_uart.h ****  * 				  \b Range: @ref XMC_UART0_CH0, @ref XMC_UART0_CH1,@ref XMC_UART1_CH0,@ref XMC_UART1_CH1,@re
 448:C:/Users/Will/Documents/GitHub/Launch-DAQ/Libraries/XMCLib/inc\xmc_uart.h ****  * @param service_request Service request number for generating protocol interrupts.\n
 449:C:/Users/Will/Documents/GitHub/Launch-DAQ/Libraries/XMCLib/inc\xmc_uart.h ****  * 				  \b Range: 0 to 5.
 450:C:/Users/Will/Documents/GitHub/Launch-DAQ/Libraries/XMCLib/inc\xmc_uart.h ****  * @return None
 451:C:/Users/Will/Documents/GitHub/Launch-DAQ/Libraries/XMCLib/inc\xmc_uart.h ****  *
 452:C:/Users/Will/Documents/GitHub/Launch-DAQ/Libraries/XMCLib/inc\xmc_uart.h ****  * \par<b>Description</b><br>
 453:C:/Users/Will/Documents/GitHub/Launch-DAQ/Libraries/XMCLib/inc\xmc_uart.h ****  * Sets the interrupt node for UART channel protocol events.\n\n
 454:C:/Users/Will/Documents/GitHub/Launch-DAQ/Libraries/XMCLib/inc\xmc_uart.h ****  * For all the protocol events enlisted in the enumeration XMC_UART_CH_EVENT_t, one common
 455:C:/Users/Will/Documents/GitHub/Launch-DAQ/Libraries/XMCLib/inc\xmc_uart.h ****  * interrupt gets generated. The service request connects the interrupt node to the UART 
 456:C:/Users/Will/Documents/GitHub/Launch-DAQ/Libraries/XMCLib/inc\xmc_uart.h ****  * protocol events.
 457:C:/Users/Will/Documents/GitHub/Launch-DAQ/Libraries/XMCLib/inc\xmc_uart.h ****  * Note: NVIC node should be separately enabled to generate the interrupt.
 458:C:/Users/Will/Documents/GitHub/Launch-DAQ/Libraries/XMCLib/inc\xmc_uart.h ****  *
 459:C:/Users/Will/Documents/GitHub/Launch-DAQ/Libraries/XMCLib/inc\xmc_uart.h ****  * \par<b>Related APIs:</b><BR>
 460:C:/Users/Will/Documents/GitHub/Launch-DAQ/Libraries/XMCLib/inc\xmc_uart.h ****  * XMC_UART_CH_EnableEvent() \n\n\n
 461:C:/Users/Will/Documents/GitHub/Launch-DAQ/Libraries/XMCLib/inc\xmc_uart.h ****  */
 462:C:/Users/Will/Documents/GitHub/Launch-DAQ/Libraries/XMCLib/inc\xmc_uart.h **** __STATIC_INLINE void XMC_UART_CH_SetInterruptNodePointer(XMC_USIC_CH_t *const channel,
 463:C:/Users/Will/Documents/GitHub/Launch-DAQ/Libraries/XMCLib/inc\xmc_uart.h ****                                                          const uint8_t service_request)
 464:C:/Users/Will/Documents/GitHub/Launch-DAQ/Libraries/XMCLib/inc\xmc_uart.h **** {
 465:C:/Users/Will/Documents/GitHub/Launch-DAQ/Libraries/XMCLib/inc\xmc_uart.h ****   XMC_USIC_CH_SetInterruptNodePointer(channel, XMC_USIC_CH_INTERRUPT_NODE_POINTER_PROTOCOL, 
 466:C:/Users/Will/Documents/GitHub/Launch-DAQ/Libraries/XMCLib/inc\xmc_uart.h ****                                               (uint32_t)service_request);
 467:C:/Users/Will/Documents/GitHub/Launch-DAQ/Libraries/XMCLib/inc\xmc_uart.h **** }
 468:C:/Users/Will/Documents/GitHub/Launch-DAQ/Libraries/XMCLib/inc\xmc_uart.h **** 
 469:C:/Users/Will/Documents/GitHub/Launch-DAQ/Libraries/XMCLib/inc\xmc_uart.h **** /**
 470:C:/Users/Will/Documents/GitHub/Launch-DAQ/Libraries/XMCLib/inc\xmc_uart.h ****  * @param channel Pointer to USIC channel handler of type @ref XMC_USIC_CH_t \n
 471:C:/Users/Will/Documents/GitHub/Launch-DAQ/Libraries/XMCLib/inc\xmc_uart.h ****  * 				  \b Range: @ref XMC_UART0_CH0, @ref XMC_UART0_CH1,@ref XMC_UART1_CH0,@ref XMC_UART1_CH1,@re
 472:C:/Users/Will/Documents/GitHub/Launch-DAQ/Libraries/XMCLib/inc\xmc_uart.h ****  * @param  interrupt_node Interrupt node pointer to be configured. \n
 473:C:/Users/Will/Documents/GitHub/Launch-DAQ/Libraries/XMCLib/inc\xmc_uart.h ****  * 						  \b Range: @ref XMC_UART_CH_INTERRUPT_NODE_POINTER_TRANSMIT_SHIFT,
 474:C:/Users/Will/Documents/GitHub/Launch-DAQ/Libraries/XMCLib/inc\xmc_uart.h ****  * 						  			@ref XMC_UART_CH_INTERRUPT_NODE_POINTER_TRANSMIT_BUFFER etc.
 475:C:/Users/Will/Documents/GitHub/Launch-DAQ/Libraries/XMCLib/inc\xmc_uart.h ****  * @param service_request Service request number.\n
 476:C:/Users/Will/Documents/GitHub/Launch-DAQ/Libraries/XMCLib/inc\xmc_uart.h ****  * 						  \b Range: 0 to 5.
 477:C:/Users/Will/Documents/GitHub/Launch-DAQ/Libraries/XMCLib/inc\xmc_uart.h ****  * @return None
 478:C:/Users/Will/Documents/GitHub/Launch-DAQ/Libraries/XMCLib/inc\xmc_uart.h ****  *
 479:C:/Users/Will/Documents/GitHub/Launch-DAQ/Libraries/XMCLib/inc\xmc_uart.h ****  * \par<b>Description</b><br>
 480:C:/Users/Will/Documents/GitHub/Launch-DAQ/Libraries/XMCLib/inc\xmc_uart.h ****  * Sets the interrupt node for USIC channel events. \n\n
 481:C:/Users/Will/Documents/GitHub/Launch-DAQ/Libraries/XMCLib/inc\xmc_uart.h ****  * For an event to generate interrupt, node pointer should be configured with service request(SR0, 
 482:C:/Users/Will/Documents/GitHub/Launch-DAQ/Libraries/XMCLib/inc\xmc_uart.h ****  * The NVIC node gets linked to the interrupt event by doing so.<br>
 483:C:/Users/Will/Documents/GitHub/Launch-DAQ/Libraries/XMCLib/inc\xmc_uart.h ****  * Note: NVIC node should be separately enabled to generate the interrupt.
 484:C:/Users/Will/Documents/GitHub/Launch-DAQ/Libraries/XMCLib/inc\xmc_uart.h ****  *
 485:C:/Users/Will/Documents/GitHub/Launch-DAQ/Libraries/XMCLib/inc\xmc_uart.h ****  * \par<b>Related APIs:</b><BR>
 486:C:/Users/Will/Documents/GitHub/Launch-DAQ/Libraries/XMCLib/inc\xmc_uart.h ****  * XMC_UART_CH_EnableEvent() \n\n\n
 487:C:/Users/Will/Documents/GitHub/Launch-DAQ/Libraries/XMCLib/inc\xmc_uart.h ****  */
 488:C:/Users/Will/Documents/GitHub/Launch-DAQ/Libraries/XMCLib/inc\xmc_uart.h **** __STATIC_INLINE void XMC_UART_CH_SelectInterruptNodePointer(XMC_USIC_CH_t *const channel,
 489:C:/Users/Will/Documents/GitHub/Launch-DAQ/Libraries/XMCLib/inc\xmc_uart.h ****                                                             const XMC_UART_CH_INTERRUPT_NODE_POINTE
 490:C:/Users/Will/Documents/GitHub/Launch-DAQ/Libraries/XMCLib/inc\xmc_uart.h ****                                                             const uint32_t service_request)
 491:C:/Users/Will/Documents/GitHub/Launch-DAQ/Libraries/XMCLib/inc\xmc_uart.h **** {
 492:C:/Users/Will/Documents/GitHub/Launch-DAQ/Libraries/XMCLib/inc\xmc_uart.h ****   XMC_USIC_CH_SetInterruptNodePointer(channel, (XMC_USIC_CH_INTERRUPT_NODE_POINTER_t)interrupt_node
 493:C:/Users/Will/Documents/GitHub/Launch-DAQ/Libraries/XMCLib/inc\xmc_uart.h **** 		                                       (uint32_t)service_request);
 494:C:/Users/Will/Documents/GitHub/Launch-DAQ/Libraries/XMCLib/inc\xmc_uart.h **** }
 495:C:/Users/Will/Documents/GitHub/Launch-DAQ/Libraries/XMCLib/inc\xmc_uart.h **** 
 496:C:/Users/Will/Documents/GitHub/Launch-DAQ/Libraries/XMCLib/inc\xmc_uart.h **** /**
 497:C:/Users/Will/Documents/GitHub/Launch-DAQ/Libraries/XMCLib/inc\xmc_uart.h ****  * @param  channel Pointer to USIC channel handler of type @ref XMC_USIC_CH_t \n
 498:C:/Users/Will/Documents/GitHub/Launch-DAQ/Libraries/XMCLib/inc\xmc_uart.h ****  * 				   \b Range: @ref XMC_UART0_CH0, @ref XMC_UART0_CH1,@ref XMC_UART1_CH0,@ref XMC_UART1_CH1,@r
 499:C:/Users/Will/Documents/GitHub/Launch-DAQ/Libraries/XMCLib/inc\xmc_uart.h ****  * @param  service_request_line service request number of the event to be triggered. \n
 500:C:/Users/Will/Documents/GitHub/Launch-DAQ/Libraries/XMCLib/inc\xmc_uart.h ****  * 			\b Range: 0 to 5.
 501:C:/Users/Will/Documents/GitHub/Launch-DAQ/Libraries/XMCLib/inc\xmc_uart.h ****  * @return None
 502:C:/Users/Will/Documents/GitHub/Launch-DAQ/Libraries/XMCLib/inc\xmc_uart.h ****  *
 503:C:/Users/Will/Documents/GitHub/Launch-DAQ/Libraries/XMCLib/inc\xmc_uart.h ****  * \par<b>Description</b><br>
 504:C:/Users/Will/Documents/GitHub/Launch-DAQ/Libraries/XMCLib/inc\xmc_uart.h ****  * Trigger a UART interrupt service request.\n\n
 505:C:/Users/Will/Documents/GitHub/Launch-DAQ/Libraries/XMCLib/inc\xmc_uart.h ****  * When the UART service request is triggered, the NVIC interrupt associated with it will be
 506:C:/Users/Will/Documents/GitHub/Launch-DAQ/Libraries/XMCLib/inc\xmc_uart.h ****  * generated if enabled.
 507:C:/Users/Will/Documents/GitHub/Launch-DAQ/Libraries/XMCLib/inc\xmc_uart.h ****  *
 508:C:/Users/Will/Documents/GitHub/Launch-DAQ/Libraries/XMCLib/inc\xmc_uart.h ****  * \par<b>Related APIs:</b><BR>
 509:C:/Users/Will/Documents/GitHub/Launch-DAQ/Libraries/XMCLib/inc\xmc_uart.h ****  * XMC_UART_CH_SelectInterruptNodePointer() \n\n\n
 510:C:/Users/Will/Documents/GitHub/Launch-DAQ/Libraries/XMCLib/inc\xmc_uart.h ****  */
 511:C:/Users/Will/Documents/GitHub/Launch-DAQ/Libraries/XMCLib/inc\xmc_uart.h **** __STATIC_INLINE void XMC_UART_CH_TriggerServiceRequest(XMC_USIC_CH_t *const channel, const uint32_t
 512:C:/Users/Will/Documents/GitHub/Launch-DAQ/Libraries/XMCLib/inc\xmc_uart.h **** {
 513:C:/Users/Will/Documents/GitHub/Launch-DAQ/Libraries/XMCLib/inc\xmc_uart.h ****   XMC_USIC_CH_TriggerServiceRequest(channel, (uint32_t)service_request_line);
 514:C:/Users/Will/Documents/GitHub/Launch-DAQ/Libraries/XMCLib/inc\xmc_uart.h **** }
 515:C:/Users/Will/Documents/GitHub/Launch-DAQ/Libraries/XMCLib/inc\xmc_uart.h **** 
 516:C:/Users/Will/Documents/GitHub/Launch-DAQ/Libraries/XMCLib/inc\xmc_uart.h **** /**
 517:C:/Users/Will/Documents/GitHub/Launch-DAQ/Libraries/XMCLib/inc\xmc_uart.h ****  * @param channel Constant pointer to USIC channel handle of type @ref XMC_USIC_CH_t \n
 518:C:/Users/Will/Documents/GitHub/Launch-DAQ/Libraries/XMCLib/inc\xmc_uart.h ****  * 				  \b Range: @ref XMC_UART0_CH0, @ref XMC_UART0_CH1,@ref XMC_UART1_CH0,@ref XMC_UART1_CH1,@re
 519:C:/Users/Will/Documents/GitHub/Launch-DAQ/Libraries/XMCLib/inc\xmc_uart.h ****  * @return Status of UART channel events. \n 
 520:C:/Users/Will/Documents/GitHub/Launch-DAQ/Libraries/XMCLib/inc\xmc_uart.h ****  *          \b Range: Use @ref XMC_UART_CH_STATUS_FLAG_t enumerations for
 521:C:/Users/Will/Documents/GitHub/Launch-DAQ/Libraries/XMCLib/inc\xmc_uart.h ****  * 					event bitmasks. @ref XMC_UART_CH_STATUS_FLAG_TRANSMISSION_IDLE, @ref XMC_UART_CH_STATUS_FLA
 522:C:/Users/Will/Documents/GitHub/Launch-DAQ/Libraries/XMCLib/inc\xmc_uart.h ****  * 					@ref XMC_UART_CH_STATUS_FLAG_SYNCHRONIZATION_BREAK_DETECTED etc.
 523:C:/Users/Will/Documents/GitHub/Launch-DAQ/Libraries/XMCLib/inc\xmc_uart.h ****  *
 524:C:/Users/Will/Documents/GitHub/Launch-DAQ/Libraries/XMCLib/inc\xmc_uart.h ****  * \par<b>Description</b><br>
 525:C:/Users/Will/Documents/GitHub/Launch-DAQ/Libraries/XMCLib/inc\xmc_uart.h ****  * Provides the status of UART channel events.\n\n
 526:C:/Users/Will/Documents/GitHub/Launch-DAQ/Libraries/XMCLib/inc\xmc_uart.h ****  * Status provided by the API represents the status of multiple events at their bit positions. The 
 527:C:/Users/Will/Documents/GitHub/Launch-DAQ/Libraries/XMCLib/inc\xmc_uart.h ****  * obtained using the enumeration XMC_UART_CH_STATUS_FLAG_t. Event status is obtained by reading
 528:C:/Users/Will/Documents/GitHub/Launch-DAQ/Libraries/XMCLib/inc\xmc_uart.h ****  * the register PSR_ASCMode.
 529:C:/Users/Will/Documents/GitHub/Launch-DAQ/Libraries/XMCLib/inc\xmc_uart.h ****  *
 530:C:/Users/Will/Documents/GitHub/Launch-DAQ/Libraries/XMCLib/inc\xmc_uart.h ****  * \par<b>Related APIs:</b><BR>
 531:C:/Users/Will/Documents/GitHub/Launch-DAQ/Libraries/XMCLib/inc\xmc_uart.h ****  * XMC_UART_CH_EnableEvent(),  XMC_UART_CH_ClearStatusFlag()\n\n\n
 532:C:/Users/Will/Documents/GitHub/Launch-DAQ/Libraries/XMCLib/inc\xmc_uart.h ****  */
 533:C:/Users/Will/Documents/GitHub/Launch-DAQ/Libraries/XMCLib/inc\xmc_uart.h **** __STATIC_INLINE uint32_t XMC_UART_CH_GetStatusFlag(XMC_USIC_CH_t *const channel)
 534:C:/Users/Will/Documents/GitHub/Launch-DAQ/Libraries/XMCLib/inc\xmc_uart.h **** {
 535:C:/Users/Will/Documents/GitHub/Launch-DAQ/Libraries/XMCLib/inc\xmc_uart.h ****   return channel->PSR_ASCMode;
 536:C:/Users/Will/Documents/GitHub/Launch-DAQ/Libraries/XMCLib/inc\xmc_uart.h **** }
 537:C:/Users/Will/Documents/GitHub/Launch-DAQ/Libraries/XMCLib/inc\xmc_uart.h **** 
 538:C:/Users/Will/Documents/GitHub/Launch-DAQ/Libraries/XMCLib/inc\xmc_uart.h **** /**
 539:C:/Users/Will/Documents/GitHub/Launch-DAQ/Libraries/XMCLib/inc\xmc_uart.h ****  * @param channel Constant pointer to USIC channel handle of type @ref XMC_USIC_CH_t \n
 540:C:/Users/Will/Documents/GitHub/Launch-DAQ/Libraries/XMCLib/inc\xmc_uart.h ****  * 				  \b Range: @ref XMC_UART0_CH0, @ref XMC_UART0_CH1,@ref XMC_UART1_CH0,@ref XMC_UART1_CH1,@re
 541:C:/Users/Will/Documents/GitHub/Launch-DAQ/Libraries/XMCLib/inc\xmc_uart.h ****  * @param flag UART events to be cleared. \n
 542:C:/Users/Will/Documents/GitHub/Launch-DAQ/Libraries/XMCLib/inc\xmc_uart.h ****  *          \b Range: Use @ref XMC_UART_CH_STATUS_FLAG_t enumerations for
 543:C:/Users/Will/Documents/GitHub/Launch-DAQ/Libraries/XMCLib/inc\xmc_uart.h ****  * 					event bitmasks. @ref XMC_UART_CH_STATUS_FLAG_TRANSMISSION_IDLE, @ref XMC_UART_CH_STATUS_FLA
 544:C:/Users/Will/Documents/GitHub/Launch-DAQ/Libraries/XMCLib/inc\xmc_uart.h ****  * 					@ref XMC_UART_CH_STATUS_FLAG_SYNCHRONIZATION_BREAK_DETECTED etc.
 545:C:/Users/Will/Documents/GitHub/Launch-DAQ/Libraries/XMCLib/inc\xmc_uart.h ****  * @return None
 546:C:/Users/Will/Documents/GitHub/Launch-DAQ/Libraries/XMCLib/inc\xmc_uart.h ****  *
 547:C:/Users/Will/Documents/GitHub/Launch-DAQ/Libraries/XMCLib/inc\xmc_uart.h ****  * \par<b>Description</b><br>
 548:C:/Users/Will/Documents/GitHub/Launch-DAQ/Libraries/XMCLib/inc\xmc_uart.h ****  * Clears the status of UART channel events.\n\n
 549:C:/Users/Will/Documents/GitHub/Launch-DAQ/Libraries/XMCLib/inc\xmc_uart.h ****  * Multiple events can be combined using the bitwise OR operation and configured in one function ca
 550:C:/Users/Will/Documents/GitHub/Launch-DAQ/Libraries/XMCLib/inc\xmc_uart.h ****  * XMC_UART_CH_STATUS_FLAG_t enumerates multiple event bitmasks. These enumerations can be used as 
 551:C:/Users/Will/Documents/GitHub/Launch-DAQ/Libraries/XMCLib/inc\xmc_uart.h ****  * Events are cleared by setting the bitmask to the PSCR register.
 552:C:/Users/Will/Documents/GitHub/Launch-DAQ/Libraries/XMCLib/inc\xmc_uart.h ****  *
 553:C:/Users/Will/Documents/GitHub/Launch-DAQ/Libraries/XMCLib/inc\xmc_uart.h ****  * \par<b>Related APIs:</b><BR>
 554:C:/Users/Will/Documents/GitHub/Launch-DAQ/Libraries/XMCLib/inc\xmc_uart.h ****  * XMC_UART_CH_DisableEvent(),  XMC_UART_CH_GetStatusFlag()\n\n\n
 555:C:/Users/Will/Documents/GitHub/Launch-DAQ/Libraries/XMCLib/inc\xmc_uart.h ****  */
 556:C:/Users/Will/Documents/GitHub/Launch-DAQ/Libraries/XMCLib/inc\xmc_uart.h **** __STATIC_INLINE void XMC_UART_CH_ClearStatusFlag(XMC_USIC_CH_t *const channel, const uint32_t flag)
 557:C:/Users/Will/Documents/GitHub/Launch-DAQ/Libraries/XMCLib/inc\xmc_uart.h **** {
 558:C:/Users/Will/Documents/GitHub/Launch-DAQ/Libraries/XMCLib/inc\xmc_uart.h ****   channel->PSCR = flag;
 559:C:/Users/Will/Documents/GitHub/Launch-DAQ/Libraries/XMCLib/inc\xmc_uart.h **** }
 560:C:/Users/Will/Documents/GitHub/Launch-DAQ/Libraries/XMCLib/inc\xmc_uart.h **** 
 561:C:/Users/Will/Documents/GitHub/Launch-DAQ/Libraries/XMCLib/inc\xmc_uart.h **** /**
 562:C:/Users/Will/Documents/GitHub/Launch-DAQ/Libraries/XMCLib/inc\xmc_uart.h ****  * @param channel Constant pointer to USIC channel handle of type @ref XMC_USIC_CH_t \n
 563:C:/Users/Will/Documents/GitHub/Launch-DAQ/Libraries/XMCLib/inc\xmc_uart.h ****  * 				  \b Range: @ref XMC_UART0_CH0, @ref XMC_UART0_CH1,@ref XMC_UART1_CH0,@ref XMC_UART1_CH1,@re
 564:C:/Users/Will/Documents/GitHub/Launch-DAQ/Libraries/XMCLib/inc\xmc_uart.h ****  * @param input UART channel input stage of type @ref XMC_UART_CH_INPUT_t. \n 
 565:C:/Users/Will/Documents/GitHub/Launch-DAQ/Libraries/XMCLib/inc\xmc_uart.h ****  *          \b Range: @ref XMC_UART_CH_INPUT_RXD (for DX0),
 566:C:/Users/Will/Documents/GitHub/Launch-DAQ/Libraries/XMCLib/inc\xmc_uart.h ****  * 					@ref XMC_UART_CH_INPUT_RXD1 (for DX3), @ref XMC_UART_CH_INPUT_RXD2 (for DX5).
 567:C:/Users/Will/Documents/GitHub/Launch-DAQ/Libraries/XMCLib/inc\xmc_uart.h ****  * @param source Input source select for the input stage. The table provided below maps the decimal
 568:C:/Users/Will/Documents/GitHub/Launch-DAQ/Libraries/XMCLib/inc\xmc_uart.h ****  * <table><tr><td>0</td><td>DXnA</td></tr><tr><td>1</td><td>DXnB</td></tr><tr><td>2</td><td>DXnC</t
 569:C:/Users/Will/Documents/GitHub/Launch-DAQ/Libraries/XMCLib/inc\xmc_uart.h ****  * <tr><td>4</td><td>DXnE</td></tr><tr><td>5</td><td>DXnF</td></tr><tr><td>6</td><td>DXnG</td></tr>
 570:C:/Users/Will/Documents/GitHub/Launch-DAQ/Libraries/XMCLib/inc\xmc_uart.h ****  * </tr></table>
 571:C:/Users/Will/Documents/GitHub/Launch-DAQ/Libraries/XMCLib/inc\xmc_uart.h ****  * @return None
 572:C:/Users/Will/Documents/GitHub/Launch-DAQ/Libraries/XMCLib/inc\xmc_uart.h ****  *
 573:C:/Users/Will/Documents/GitHub/Launch-DAQ/Libraries/XMCLib/inc\xmc_uart.h ****  * \par<b>Description</b><br>
 574:C:/Users/Will/Documents/GitHub/Launch-DAQ/Libraries/XMCLib/inc\xmc_uart.h ****  * Sets input soource for the UART communication.\n\n
 575:C:/Users/Will/Documents/GitHub/Launch-DAQ/Libraries/XMCLib/inc\xmc_uart.h ****  * It is used for configuring the input stage for data reception.
 576:C:/Users/Will/Documents/GitHub/Launch-DAQ/Libraries/XMCLib/inc\xmc_uart.h ****  * Selects the input data signal source among DXnA, DXnB.. DXnG for the input stage. 
 577:C:/Users/Will/Documents/GitHub/Launch-DAQ/Libraries/XMCLib/inc\xmc_uart.h ****  * The API can be used for the input stages DX0, DX3 and DX5. 
 578:C:/Users/Will/Documents/GitHub/Launch-DAQ/Libraries/XMCLib/inc\xmc_uart.h ****  *
 579:C:/Users/Will/Documents/GitHub/Launch-DAQ/Libraries/XMCLib/inc\xmc_uart.h ****  * \par<b>Related APIs:</b><BR>
 580:C:/Users/Will/Documents/GitHub/Launch-DAQ/Libraries/XMCLib/inc\xmc_uart.h ****  * XMC_UART_CH_EnableInputInversion() \n\n\n
 581:C:/Users/Will/Documents/GitHub/Launch-DAQ/Libraries/XMCLib/inc\xmc_uart.h ****  */
 582:C:/Users/Will/Documents/GitHub/Launch-DAQ/Libraries/XMCLib/inc\xmc_uart.h **** __STATIC_INLINE void XMC_UART_CH_SetInputSource(XMC_USIC_CH_t *const channel, const XMC_UART_CH_INP
 583:C:/Users/Will/Documents/GitHub/Launch-DAQ/Libraries/XMCLib/inc\xmc_uart.h **** {
 584:C:/Users/Will/Documents/GitHub/Launch-DAQ/Libraries/XMCLib/inc\xmc_uart.h ****   channel->DXCR[input] = (uint32_t)(channel->DXCR[input] & (~(USIC_CH_DX0CR_INSW_Msk|USIC_CH_DX0CR_
 585:C:/Users/Will/Documents/GitHub/Launch-DAQ/Libraries/XMCLib/inc\xmc_uart.h ****   XMC_USIC_CH_SetInputSource(channel, (XMC_USIC_CH_INPUT_t)input, source);
 586:C:/Users/Will/Documents/GitHub/Launch-DAQ/Libraries/XMCLib/inc\xmc_uart.h **** }
 587:C:/Users/Will/Documents/GitHub/Launch-DAQ/Libraries/XMCLib/inc\xmc_uart.h **** 
 588:C:/Users/Will/Documents/GitHub/Launch-DAQ/Libraries/XMCLib/inc\xmc_uart.h **** /**
 589:C:/Users/Will/Documents/GitHub/Launch-DAQ/Libraries/XMCLib/inc\xmc_uart.h ****  * @param channel Constant pointer to USIC channel handle of type @ref XMC_USIC_CH_t \n
 590:C:/Users/Will/Documents/GitHub/Launch-DAQ/Libraries/XMCLib/inc\xmc_uart.h ****  * 				  \b Range: @ref XMC_UART0_CH0, @ref XMC_UART0_CH1,@ref XMC_UART1_CH0,@ref XMC_UART1_CH1,@re
 591:C:/Users/Will/Documents/GitHub/Launch-DAQ/Libraries/XMCLib/inc\xmc_uart.h ****  * @param pulse_length Length of the zero pulse in number of time quanta. \n 
 592:C:/Users/Will/Documents/GitHub/Launch-DAQ/Libraries/XMCLib/inc\xmc_uart.h ****  *          \b Range: 0 to 7.
 593:C:/Users/Will/Documents/GitHub/Launch-DAQ/Libraries/XMCLib/inc\xmc_uart.h ****  * @return None
 594:C:/Users/Will/Documents/GitHub/Launch-DAQ/Libraries/XMCLib/inc\xmc_uart.h ****  *
 595:C:/Users/Will/Documents/GitHub/Launch-DAQ/Libraries/XMCLib/inc\xmc_uart.h ****  * \par<b>Description</b><br>
 596:C:/Users/Will/Documents/GitHub/Launch-DAQ/Libraries/XMCLib/inc\xmc_uart.h ****  * Sets the length of zero pulse in number of time quanta. Value 0 indicates one time quanta.\n\n
 597:C:/Users/Will/Documents/GitHub/Launch-DAQ/Libraries/XMCLib/inc\xmc_uart.h ****  * Maximum possible is 8 time quanta with the value configured as 7.\n
 598:C:/Users/Will/Documents/GitHub/Launch-DAQ/Libraries/XMCLib/inc\xmc_uart.h ****  * The value is set to PCR_ASCMode register.
 599:C:/Users/Will/Documents/GitHub/Launch-DAQ/Libraries/XMCLib/inc\xmc_uart.h ****  * \par<b>Related APIs:</b><BR>
 600:C:/Users/Will/Documents/GitHub/Launch-DAQ/Libraries/XMCLib/inc\xmc_uart.h ****  * XMC_UART_CH_EnableInputInversion(), XMC_UART_CH_SetSamplePoint() \n\n\n
 601:C:/Users/Will/Documents/GitHub/Launch-DAQ/Libraries/XMCLib/inc\xmc_uart.h ****  *
 602:C:/Users/Will/Documents/GitHub/Launch-DAQ/Libraries/XMCLib/inc\xmc_uart.h **** */
 603:C:/Users/Will/Documents/GitHub/Launch-DAQ/Libraries/XMCLib/inc\xmc_uart.h **** __STATIC_INLINE void XMC_UART_CH_SetPulseLength(XMC_USIC_CH_t *const channel, const uint8_t pulse_l
 604:C:/Users/Will/Documents/GitHub/Launch-DAQ/Libraries/XMCLib/inc\xmc_uart.h **** {
 605:C:/Users/Will/Documents/GitHub/Launch-DAQ/Libraries/XMCLib/inc\xmc_uart.h ****   channel->PCR_ASCMode = (uint32_t)(channel->PCR_ASCMode & (~USIC_CH_PCR_ASCMode_PL_Msk)) |
 606:C:/Users/Will/Documents/GitHub/Launch-DAQ/Libraries/XMCLib/inc\xmc_uart.h ****                          ((uint32_t)pulse_length << USIC_CH_PCR_ASCMode_PL_Pos);
 607:C:/Users/Will/Documents/GitHub/Launch-DAQ/Libraries/XMCLib/inc\xmc_uart.h **** }
 608:C:/Users/Will/Documents/GitHub/Launch-DAQ/Libraries/XMCLib/inc\xmc_uart.h **** 
 609:C:/Users/Will/Documents/GitHub/Launch-DAQ/Libraries/XMCLib/inc\xmc_uart.h **** /**
 610:C:/Users/Will/Documents/GitHub/Launch-DAQ/Libraries/XMCLib/inc\xmc_uart.h ****  * @param channel Constant pointer to USIC channel handle of type @ref XMC_USIC_CH_t \n
 611:C:/Users/Will/Documents/GitHub/Launch-DAQ/Libraries/XMCLib/inc\xmc_uart.h ****  * 				  \b Range: @ref XMC_UART0_CH0, @ref XMC_UART0_CH1,@ref XMC_UART1_CH0,@ref XMC_UART1_CH1,@re
 612:C:/Users/Will/Documents/GitHub/Launch-DAQ/Libraries/XMCLib/inc\xmc_uart.h ****  * @param sample_point Sample point among the number of samples. \n
 613:C:/Users/Will/Documents/GitHub/Launch-DAQ/Libraries/XMCLib/inc\xmc_uart.h ****  * 				  \b Range: minimum= 0, maximum= \a oversampling (DCTQ).
 614:C:/Users/Will/Documents/GitHub/Launch-DAQ/Libraries/XMCLib/inc\xmc_uart.h ****  * @return None
 615:C:/Users/Will/Documents/GitHub/Launch-DAQ/Libraries/XMCLib/inc\xmc_uart.h ****  *
 616:C:/Users/Will/Documents/GitHub/Launch-DAQ/Libraries/XMCLib/inc\xmc_uart.h ****  * \par<b>Description</b><br>
 617:C:/Users/Will/Documents/GitHub/Launch-DAQ/Libraries/XMCLib/inc\xmc_uart.h ****  * Sets the sample point among the multiple samples for each UART symbol.\n\n
 618:C:/Users/Will/Documents/GitHub/Launch-DAQ/Libraries/XMCLib/inc\xmc_uart.h ****  * The sample point is the one sample among number of samples set as oversampling. The value should
 619:C:/Users/Will/Documents/GitHub/Launch-DAQ/Libraries/XMCLib/inc\xmc_uart.h ****  * the oversampling value. XMC_UART_CH_Init() sets the sample point to the sample at the centre. Fo
 620:C:/Users/Will/Documents/GitHub/Launch-DAQ/Libraries/XMCLib/inc\xmc_uart.h ****  * example if the oversampling is 16, then the sample point is set to 9.
 621:C:/Users/Will/Documents/GitHub/Launch-DAQ/Libraries/XMCLib/inc\xmc_uart.h ****  * \par<b>Related APIs:</b><BR>
 622:C:/Users/Will/Documents/GitHub/Launch-DAQ/Libraries/XMCLib/inc\xmc_uart.h ****  * XMC_UART_CH_EnableInputInversion(), XMC_UART_CH_SetSamplePoint() \n\n\n
 623:C:/Users/Will/Documents/GitHub/Launch-DAQ/Libraries/XMCLib/inc\xmc_uart.h ****  */
 624:C:/Users/Will/Documents/GitHub/Launch-DAQ/Libraries/XMCLib/inc\xmc_uart.h **** __STATIC_INLINE void XMC_UART_CH_SetSamplePoint(XMC_USIC_CH_t *const channel, const uint32_t sample
 625:C:/Users/Will/Documents/GitHub/Launch-DAQ/Libraries/XMCLib/inc\xmc_uart.h **** {
  89              	 .loc 2 625 0
  90              	 .cfi_startproc
  91              	 
  92              	 
  93              	 
  94 0000 80B4     	 push {r7}
  95              	.LCFI6:
  96              	 .cfi_def_cfa_offset 4
  97              	 .cfi_offset 7,-4
  98 0002 83B0     	 sub sp,sp,#12
  99              	.LCFI7:
 100              	 .cfi_def_cfa_offset 16
 101 0004 00AF     	 add r7,sp,#0
 102              	.LCFI8:
 103              	 .cfi_def_cfa_register 7
 104 0006 7860     	 str r0,[r7,#4]
 105 0008 3960     	 str r1,[r7]
 626:C:/Users/Will/Documents/GitHub/Launch-DAQ/Libraries/XMCLib/inc\xmc_uart.h ****   channel->PCR_ASCMode = (uint32_t)((channel->PCR_ASCMode & (uint32_t)(~USIC_CH_PCR_ASCMode_SP_Msk)
 106              	 .loc 2 626 0
 107 000a 7B68     	 ldr r3,[r7,#4]
 108 000c DB6B     	 ldr r3,[r3,#60]
 109 000e 23F4F852 	 bic r2,r3,#7936
 627:C:/Users/Will/Documents/GitHub/Launch-DAQ/Libraries/XMCLib/inc\xmc_uart.h ****                          (sample_point << USIC_CH_PCR_ASCMode_SP_Pos));
 110              	 .loc 2 627 0
 111 0012 3B68     	 ldr r3,[r7]
 112 0014 1B02     	 lsls r3,r3,#8
 626:C:/Users/Will/Documents/GitHub/Launch-DAQ/Libraries/XMCLib/inc\xmc_uart.h ****   channel->PCR_ASCMode = (uint32_t)((channel->PCR_ASCMode & (uint32_t)(~USIC_CH_PCR_ASCMode_SP_Msk)
 113              	 .loc 2 626 0
 114 0016 1A43     	 orrs r2,r2,r3
 115 0018 7B68     	 ldr r3,[r7,#4]
 116 001a DA63     	 str r2,[r3,#60]
 628:C:/Users/Will/Documents/GitHub/Launch-DAQ/Libraries/XMCLib/inc\xmc_uart.h **** }
 117              	 .loc 2 628 0
 118 001c 0C37     	 adds r7,r7,#12
 119              	.LCFI9:
 120              	 .cfi_def_cfa_offset 4
 121 001e BD46     	 mov sp,r7
 122              	.LCFI10:
 123              	 .cfi_def_cfa_register 13
 124              	 
 125 0020 5DF8047B 	 ldr r7,[sp],#4
 126              	.LCFI11:
 127              	 .cfi_restore 7
 128              	 .cfi_def_cfa_offset 0
 129 0024 7047     	 bx lr
 130              	 .cfi_endproc
 131              	.LFE196:
 133              	 .global UART_CONFIG_0_channel_config
 134 0026 00BF     	 .section .rodata.UART_CONFIG_0_channel_config,"a",%progbits
 135              	 .align 2
 138              	UART_CONFIG_0_channel_config:
 139 0000 004B0000 	 .word 19200
 140 0004 08       	 .byte 8
 141 0005 08       	 .byte 8
 142 0006 01       	 .byte 1
 143 0007 10       	 .byte 16
 144 0008 0000     	 .short 0
 145 000a 0000     	 .space 2
 146              	 .global UART_CONFIG_0_config
 147              	 .section .rodata.UART_CONFIG_0_config,"a",%progbits
 148              	 .align 2
 151              	UART_CONFIG_0_config:
 152 0000 00000000 	 .word UART_CONFIG_0_channel_config
 153 0004 08       	 .byte 8
 154 0005 00       	 .byte 0
 155 0006 0000     	 .space 2
 156 0008 00000000 	 .word UART_CONFIG_0_lInit
 157 000c 00       	 .byte 0
 158 000d 00       	 .byte 0
 159 000e 00       	 .byte 0
 160 000f 00       	 .byte 0
 161 0010 00       	 .byte 0
 162 0011 000000   	 .space 3
 163              	 .global UART_CONFIG_0
 164              	 .section .data.UART_CONFIG_0,"aw",%progbits
 165              	 .align 2
 168              	UART_CONFIG_0:
 169 0000 00000340 	 .word 1073938432
 170 0004 00000000 	 .word UART_CONFIG_0_config
 171              	 .section .text.UART_CONFIG_0_lInit,"ax",%progbits
 172              	 .align 2
 173              	 .global UART_CONFIG_0_lInit
 174              	 .thumb
 175              	 .thumb_func
 177              	UART_CONFIG_0_lInit:
 178              	.LFB206:
 179              	 .file 3 "../Dave/Generated/UART_CONFIG/uart_config_conf.c"
   1:../Dave/Generated/UART_CONFIG/uart_config_conf.c **** /**************************************************************************************************
   2:../Dave/Generated/UART_CONFIG/uart_config_conf.c **** * DAVE APP Name : UART_CONFIG       APP Version: 4.0.12
   3:../Dave/Generated/UART_CONFIG/uart_config_conf.c **** *
   4:../Dave/Generated/UART_CONFIG/uart_config_conf.c **** * NOTE:
   5:../Dave/Generated/UART_CONFIG/uart_config_conf.c **** * This file is generated by DAVE. Any manual modification done to this file will be lost when the c
   6:../Dave/Generated/UART_CONFIG/uart_config_conf.c **** ***************************************************************************************************
   7:../Dave/Generated/UART_CONFIG/uart_config_conf.c **** 
   8:../Dave/Generated/UART_CONFIG/uart_config_conf.c **** /**
   9:../Dave/Generated/UART_CONFIG/uart_config_conf.c ****  * @file uart_config_conf.c
  10:../Dave/Generated/UART_CONFIG/uart_config_conf.c ****  * @date 2017-11-10
  11:../Dave/Generated/UART_CONFIG/uart_config_conf.c ****  *
  12:../Dave/Generated/UART_CONFIG/uart_config_conf.c ****  * NOTE:
  13:../Dave/Generated/UART_CONFIG/uart_config_conf.c ****  * This file is generated by DAVE-4. Any manual modification done to this file will be lost when th
  14:../Dave/Generated/UART_CONFIG/uart_config_conf.c ****  * regenerated.
  15:../Dave/Generated/UART_CONFIG/uart_config_conf.c ****  *
  16:../Dave/Generated/UART_CONFIG/uart_config_conf.c ****  * @cond
  17:../Dave/Generated/UART_CONFIG/uart_config_conf.c ****  **************************************************************************************************
  18:../Dave/Generated/UART_CONFIG/uart_config_conf.c ****  *
  19:../Dave/Generated/UART_CONFIG/uart_config_conf.c ****  * Copyright (c) 2015-2020, Infineon Technologies AG
  20:../Dave/Generated/UART_CONFIG/uart_config_conf.c ****  * All rights reserved.
  21:../Dave/Generated/UART_CONFIG/uart_config_conf.c ****  *
  22:../Dave/Generated/UART_CONFIG/uart_config_conf.c ****  * Redistribution and use in source and binary forms, with or without modification, are permitted p
  23:../Dave/Generated/UART_CONFIG/uart_config_conf.c ****  * following conditions are met:
  24:../Dave/Generated/UART_CONFIG/uart_config_conf.c ****  *
  25:../Dave/Generated/UART_CONFIG/uart_config_conf.c ****  *   Redistributions of source code must retain the above copyright notice, this list of conditions
  26:../Dave/Generated/UART_CONFIG/uart_config_conf.c ****  *   disclaimer.
  27:../Dave/Generated/UART_CONFIG/uart_config_conf.c ****  *
  28:../Dave/Generated/UART_CONFIG/uart_config_conf.c ****  *   Redistributions in binary form must reproduce the above copyright notice, this list of conditi
  29:../Dave/Generated/UART_CONFIG/uart_config_conf.c ****  *   following disclaimer in the documentation and/or other materials provided with the distributio
  30:../Dave/Generated/UART_CONFIG/uart_config_conf.c ****  *
  31:../Dave/Generated/UART_CONFIG/uart_config_conf.c ****  *   Neither the name of the copyright holders nor the names of its contributors may be used to end
  32:../Dave/Generated/UART_CONFIG/uart_config_conf.c ****  *   products derived from this software without specific prior written permission.
  33:../Dave/Generated/UART_CONFIG/uart_config_conf.c ****  *
  34:../Dave/Generated/UART_CONFIG/uart_config_conf.c ****  * THIS SOFTWARE IS PROVIDED BY THE COPYRIGHT HOLDERS AND CONTRIBUTORS "AS IS" AND ANY EXPRESS OR I
  35:../Dave/Generated/UART_CONFIG/uart_config_conf.c ****  * INCLUDING, BUT NOT LIMITED TO, THE IMPLIED WARRANTIES OF MERCHANTABILITY AND FITNESS FOR A PARTI
  36:../Dave/Generated/UART_CONFIG/uart_config_conf.c ****  * DISCLAIMED. IN NO EVENT SHALL THE COPYRIGHT HOLDER OR CONTRIBUTORS BE LIABLE  FOR ANY DIRECT, IN
  37:../Dave/Generated/UART_CONFIG/uart_config_conf.c ****  * SPECIAL, EXEMPLARY, OR CONSEQUENTIAL DAMAGES (INCLUDING, BUT NOT LIMITED TO, PROCUREMENT OF SUBS
  38:../Dave/Generated/UART_CONFIG/uart_config_conf.c ****  * SERVICES; LOSS OF USE, DATA, OR PROFITS; OR BUSINESS INTERRUPTION) HOWEVER CAUSED AND ON ANY THE
  39:../Dave/Generated/UART_CONFIG/uart_config_conf.c ****  * WHETHER IN CONTRACT, STRICT LIABILITY,OR TORT (INCLUDING NEGLIGENCE OR OTHERWISE) ARISING IN ANY
  40:../Dave/Generated/UART_CONFIG/uart_config_conf.c ****  * USE OF THIS SOFTWARE, EVEN IF ADVISED OF THE POSSIBILITY OF SUCH DAMAGE.
  41:../Dave/Generated/UART_CONFIG/uart_config_conf.c ****  *
  42:../Dave/Generated/UART_CONFIG/uart_config_conf.c ****  * To improve the quality of the software, users are encouraged to share modifications, enhancement
  43:../Dave/Generated/UART_CONFIG/uart_config_conf.c ****  * with Infineon Technologies AG (dave@infineon.com).
  44:../Dave/Generated/UART_CONFIG/uart_config_conf.c ****  **************************************************************************************************
  45:../Dave/Generated/UART_CONFIG/uart_config_conf.c ****  *
  46:../Dave/Generated/UART_CONFIG/uart_config_conf.c ****  * Change History
  47:../Dave/Generated/UART_CONFIG/uart_config_conf.c ****  * --------------
  48:../Dave/Generated/UART_CONFIG/uart_config_conf.c ****  *
  49:../Dave/Generated/UART_CONFIG/uart_config_conf.c ****  * 2015-07-11:
  50:../Dave/Generated/UART_CONFIG/uart_config_conf.c ****  *     - Initial version for DAVEv4
  51:../Dave/Generated/UART_CONFIG/uart_config_conf.c ****  *
  52:../Dave/Generated/UART_CONFIG/uart_config_conf.c ****  * 2015-08-19:
  53:../Dave/Generated/UART_CONFIG/uart_config_conf.c ****  *     - Removed internal pad consumption
  54:../Dave/Generated/UART_CONFIG/uart_config_conf.c ****  *
  55:../Dave/Generated/UART_CONFIG/uart_config_conf.c ****  * 2015-08-28:
  56:../Dave/Generated/UART_CONFIG/uart_config_conf.c ****  *     - Added support for BRG from external frequency input
  57:../Dave/Generated/UART_CONFIG/uart_config_conf.c ****  *
  58:../Dave/Generated/UART_CONFIG/uart_config_conf.c ****  * 2017-11-10:
  59:../Dave/Generated/UART_CONFIG/uart_config_conf.c ****  *     - Renamed UART_CONFIG_t to UART_CH_CONFIG_t to avoid clash when using simultaneously UART an
  60:../Dave/Generated/UART_CONFIG/uart_config_conf.c ****  *
  61:../Dave/Generated/UART_CONFIG/uart_config_conf.c ****  * @endcond
  62:../Dave/Generated/UART_CONFIG/uart_config_conf.c ****  *
  63:../Dave/Generated/UART_CONFIG/uart_config_conf.c ****  */
  64:../Dave/Generated/UART_CONFIG/uart_config_conf.c **** /**************************************************************************************************
  65:../Dave/Generated/UART_CONFIG/uart_config_conf.c ****  * HEADER FILES
  66:../Dave/Generated/UART_CONFIG/uart_config_conf.c ****  **************************************************************************************************
  67:../Dave/Generated/UART_CONFIG/uart_config_conf.c **** #include "uart_config.h"
  68:../Dave/Generated/UART_CONFIG/uart_config_conf.c **** 
  69:../Dave/Generated/UART_CONFIG/uart_config_conf.c **** /**************************************************************************************************
  70:../Dave/Generated/UART_CONFIG/uart_config_conf.c ****  * EXTERN DECLARATIONS
  71:../Dave/Generated/UART_CONFIG/uart_config_conf.c ****  **************************************************************************************************
  72:../Dave/Generated/UART_CONFIG/uart_config_conf.c **** 
  73:../Dave/Generated/UART_CONFIG/uart_config_conf.c **** 
  74:../Dave/Generated/UART_CONFIG/uart_config_conf.c **** /**************************************************************************************************
  75:../Dave/Generated/UART_CONFIG/uart_config_conf.c ****  * FUNCTION PROTOTYPES
  76:../Dave/Generated/UART_CONFIG/uart_config_conf.c ****  **************************************************************************************************
  77:../Dave/Generated/UART_CONFIG/uart_config_conf.c **** /* USIC channel initialization function */
  78:../Dave/Generated/UART_CONFIG/uart_config_conf.c **** void UART_CONFIG_0_lInit(void);
  79:../Dave/Generated/UART_CONFIG/uart_config_conf.c **** 
  80:../Dave/Generated/UART_CONFIG/uart_config_conf.c **** 
  81:../Dave/Generated/UART_CONFIG/uart_config_conf.c **** /**************************************************************************************************
  82:../Dave/Generated/UART_CONFIG/uart_config_conf.c ****  * DATA STRUCTURES
  83:../Dave/Generated/UART_CONFIG/uart_config_conf.c ****  **************************************************************************************************
  84:../Dave/Generated/UART_CONFIG/uart_config_conf.c **** 
  85:../Dave/Generated/UART_CONFIG/uart_config_conf.c **** /* USIC channel configuration for UART */
  86:../Dave/Generated/UART_CONFIG/uart_config_conf.c **** const XMC_UART_CH_CONFIG_t UART_CONFIG_0_channel_config =
  87:../Dave/Generated/UART_CONFIG/uart_config_conf.c **** {
  88:../Dave/Generated/UART_CONFIG/uart_config_conf.c ****   .baudrate      = 19200U,
  89:../Dave/Generated/UART_CONFIG/uart_config_conf.c ****   .data_bits     = 8U,
  90:../Dave/Generated/UART_CONFIG/uart_config_conf.c ****   .frame_length  = 8U,
  91:../Dave/Generated/UART_CONFIG/uart_config_conf.c ****   .stop_bits     = 1U,
  92:../Dave/Generated/UART_CONFIG/uart_config_conf.c ****   .oversampling  = 16U,
  93:../Dave/Generated/UART_CONFIG/uart_config_conf.c ****   .parity_mode   = XMC_USIC_CH_PARITY_MODE_NONE
  94:../Dave/Generated/UART_CONFIG/uart_config_conf.c **** };
  95:../Dave/Generated/UART_CONFIG/uart_config_conf.c **** 
  96:../Dave/Generated/UART_CONFIG/uart_config_conf.c **** /* UART APP configuration structure */
  97:../Dave/Generated/UART_CONFIG/uart_config_conf.c **** const UART_CONFIG_CONF_t UART_CONFIG_0_config = 
  98:../Dave/Generated/UART_CONFIG/uart_config_conf.c **** {
  99:../Dave/Generated/UART_CONFIG/uart_config_conf.c ****   .channel_config   = &UART_CONFIG_0_channel_config,
 100:../Dave/Generated/UART_CONFIG/uart_config_conf.c ****   .sample_point = 8U,
 101:../Dave/Generated/UART_CONFIG/uart_config_conf.c ****   .pulse_length = 0U,
 102:../Dave/Generated/UART_CONFIG/uart_config_conf.c ****   .uart_config_init = UART_CONFIG_0_lInit,
 103:../Dave/Generated/UART_CONFIG/uart_config_conf.c ****   .mode = UART_CONFIG_MODE_FULLDUPLEX,
 104:../Dave/Generated/UART_CONFIG/uart_config_conf.c ****   .tx_fifo_size     = XMC_USIC_CH_FIFO_DISABLED,
 105:../Dave/Generated/UART_CONFIG/uart_config_conf.c ****   .tx_fifo_limit     = 0U,
 106:../Dave/Generated/UART_CONFIG/uart_config_conf.c ****   .rx_fifo_size     = XMC_USIC_CH_FIFO_DISABLED,
 107:../Dave/Generated/UART_CONFIG/uart_config_conf.c ****   .rx_fifo_limit     = 0U
 108:../Dave/Generated/UART_CONFIG/uart_config_conf.c **** };
 109:../Dave/Generated/UART_CONFIG/uart_config_conf.c **** 
 110:../Dave/Generated/UART_CONFIG/uart_config_conf.c **** /* APP handle structure */
 111:../Dave/Generated/UART_CONFIG/uart_config_conf.c **** UART_CH_CONFIG_t UART_CONFIG_0 = 
 112:../Dave/Generated/UART_CONFIG/uart_config_conf.c **** {
 113:../Dave/Generated/UART_CONFIG/uart_config_conf.c ****   .channel = XMC_UART0_CH0,
 114:../Dave/Generated/UART_CONFIG/uart_config_conf.c ****   .config  = &UART_CONFIG_0_config
 115:../Dave/Generated/UART_CONFIG/uart_config_conf.c **** };
 116:../Dave/Generated/UART_CONFIG/uart_config_conf.c **** 
 117:../Dave/Generated/UART_CONFIG/uart_config_conf.c **** /**************************************************************************************************
 118:../Dave/Generated/UART_CONFIG/uart_config_conf.c ****  * API IMPLEMENTATION
 119:../Dave/Generated/UART_CONFIG/uart_config_conf.c ****  **************************************************************************************************
 120:../Dave/Generated/UART_CONFIG/uart_config_conf.c **** /* Channel initialization function */
 121:../Dave/Generated/UART_CONFIG/uart_config_conf.c **** void UART_CONFIG_0_lInit()
 122:../Dave/Generated/UART_CONFIG/uart_config_conf.c **** {
 180              	 .loc 3 122 0
 181              	 .cfi_startproc
 182              	 
 183              	 
 184 0000 80B5     	 push {r7,lr}
 185              	.LCFI12:
 186              	 .cfi_def_cfa_offset 8
 187              	 .cfi_offset 7,-8
 188              	 .cfi_offset 14,-4
 189 0002 00AF     	 add r7,sp,#0
 190              	.LCFI13:
 191              	 .cfi_def_cfa_register 7
 123:../Dave/Generated/UART_CONFIG/uart_config_conf.c ****   /* Initialize USIC channel in UART mode */
 124:../Dave/Generated/UART_CONFIG/uart_config_conf.c ****   XMC_UART_CH_Init(XMC_UART0_CH0, &UART_CONFIG_0_channel_config);
 192              	 .loc 3 124 0
 193 0004 0948     	 ldr r0,.L4
 194 0006 0A49     	 ldr r1,.L4+4
 195 0008 FFF7FEFF 	 bl XMC_UART_CH_Init
 125:../Dave/Generated/UART_CONFIG/uart_config_conf.c ****   /* Set the Sample Point */
 126:../Dave/Generated/UART_CONFIG/uart_config_conf.c ****   XMC_UART_CH_SetSamplePoint(XMC_UART0_CH0, 8U);
 196              	 .loc 3 126 0
 197 000c 0748     	 ldr r0,.L4
 198 000e 0821     	 movs r1,#8
 199 0010 FFF7FEFF 	 bl XMC_UART_CH_SetSamplePoint
 127:../Dave/Generated/UART_CONFIG/uart_config_conf.c ****   /* Set input source for input stage dx0 (receive pin) */
 128:../Dave/Generated/UART_CONFIG/uart_config_conf.c ****   XMC_USIC_CH_SetInputSource(XMC_UART0_CH0, (XMC_USIC_CH_INPUT_t)XMC_UART_CH_INPUT_RXD, 0U);
 200              	 .loc 3 128 0
 201 0014 0548     	 ldr r0,.L4
 202 0016 0021     	 movs r1,#0
 203 0018 0022     	 movs r2,#0
 204 001a FFF7FEFF 	 bl XMC_USIC_CH_SetInputSource
 129:../Dave/Generated/UART_CONFIG/uart_config_conf.c ****   /* Set the service request line for the Data Lost, Baud Rate Generator and UART protocol events *
 130:../Dave/Generated/UART_CONFIG/uart_config_conf.c ****   XMC_USIC_CH_SetInterruptNodePointer(XMC_UART0_CH0, XMC_USIC_CH_INTERRUPT_NODE_POINTER_PROTOCOL, 0
 205              	 .loc 3 130 0
 206 001e 0348     	 ldr r0,.L4
 207 0020 1021     	 movs r1,#16
 208 0022 0022     	 movs r2,#0
 209 0024 FFF7FEFF 	 bl XMC_USIC_CH_SetInterruptNodePointer
 131:../Dave/Generated/UART_CONFIG/uart_config_conf.c **** }
 210              	 .loc 3 131 0
 211 0028 80BD     	 pop {r7,pc}
 212              	.L5:
 213 002a 00BF     	 .align 2
 214              	.L4:
 215 002c 00000340 	 .word 1073938432
 216 0030 00000000 	 .word UART_CONFIG_0_channel_config
 217              	 .cfi_endproc
 218              	.LFE206:
 220              	 .text
 221              	.Letext0:
 222              	 .file 4 "c:\\infineon\\tools\\dave ide\\4.5.0.202105191637\\eclipse\\arm-gcc-49\\arm-none-eabi\\include\\machine\\_default_types.h"
 223              	 .file 5 "c:\\infineon\\tools\\dave ide\\4.5.0.202105191637\\eclipse\\arm-gcc-49\\arm-none-eabi\\include\\stdint.h"
 224              	 .file 6 "../Dave/Generated/UART_CONFIG/uart_config.h"
 225              	 .file 7 "C:/Users/Will/Documents/GitHub/Launch-DAQ/Libraries/CMSIS/Include/core_cm4.h"